(dp0
S'commits'
p1
(dp2
V02682e761c5c9c485050763ea4abd5625947e8aa
p3
(dp4
S'commit'
p5
ccopy_reg
_reconstructor
p6
(cgithub.Commit
Commit
p7
c__builtin__
object
p8
Ntp9
Rp10
(dp11
S'_sha'
p12
(igithub.GithubObject
_ValuedAttribute
p13
(dp14
S'value'
p15
g3
sbsS'_comments_url'
p16
(igithub.GithubObject
_ValuedAttribute
p17
(dp18
g15
Vhttps://api.github.com/repos/cryptonomex/graphene/commits/02682e761c5c9c485050763ea4abd5625947e8aa/comments
p19
sbsS'_rawData'
p20
(dp21
Vcommitter
p22
(dp23
Vfollowing_url
p24
Vhttps://api.github.com/users/nathanhourt/following{/other_user}
p25
sVevents_url
p26
Vhttps://api.github.com/users/nathanhourt/events{/privacy}
p27
sVorganizations_url
p28
Vhttps://api.github.com/users/nathanhourt/orgs
p29
sVurl
p30
Vhttps://api.github.com/users/nathanhourt
p31
sVgists_url
p32
Vhttps://api.github.com/users/nathanhourt/gists{/gist_id}
p33
sVhtml_url
p34
Vhttps://github.com/nathanhourt
p35
sVsubscriptions_url
p36
Vhttps://api.github.com/users/nathanhourt/subscriptions
p37
sVavatar_url
p38
Vhttps://avatars.githubusercontent.com/u/271977?v=3
p39
sVrepos_url
p40
Vhttps://api.github.com/users/nathanhourt/repos
p41
sVreceived_events_url
p42
Vhttps://api.github.com/users/nathanhourt/received_events
p43
sVgravatar_id
p44
V
p45
sVstarred_url
p46
Vhttps://api.github.com/users/nathanhourt/starred{/owner}{/repo}
p47
sVsite_admin
p48
I00
sVlogin
p49
Vnathanhourt
p50
sVtype
p51
VUser
p52
sVid
p53
I271977
sVfollowers_url
p54
Vhttps://api.github.com/users/nathanhourt/followers
p55
ssVauthor
p56
(dp57
Vfollowing_url
p58
Vhttps://api.github.com/users/nathanhourt/following{/other_user}
p59
sVevents_url
p60
Vhttps://api.github.com/users/nathanhourt/events{/privacy}
p61
sVorganizations_url
p62
Vhttps://api.github.com/users/nathanhourt/orgs
p63
sVurl
p64
Vhttps://api.github.com/users/nathanhourt
p65
sVgists_url
p66
Vhttps://api.github.com/users/nathanhourt/gists{/gist_id}
p67
sVhtml_url
p68
Vhttps://github.com/nathanhourt
p69
sVsubscriptions_url
p70
Vhttps://api.github.com/users/nathanhourt/subscriptions
p71
sVavatar_url
p72
Vhttps://avatars.githubusercontent.com/u/271977?v=3
p73
sVrepos_url
p74
Vhttps://api.github.com/users/nathanhourt/repos
p75
sVreceived_events_url
p76
Vhttps://api.github.com/users/nathanhourt/received_events
p77
sVgravatar_id
p78
g45
sVstarred_url
p79
Vhttps://api.github.com/users/nathanhourt/starred{/owner}{/repo}
p80
sVsite_admin
p81
I00
sVlogin
p82
Vnathanhourt
p83
sVtype
p84
VUser
p85
sVid
p86
I271977
sVfollowers_url
p87
Vhttps://api.github.com/users/nathanhourt/followers
p88
ssVurl
p89
Vhttps://api.github.com/repos/cryptonomex/graphene/commits/02682e761c5c9c485050763ea4abd5625947e8aa
p90
sVcomments_url
p91
g19
sVhtml_url
p92
Vhttps://github.com/cryptonomex/graphene/commit/02682e761c5c9c485050763ea4abd5625947e8aa
p93
sVsha
p94
g3
sVparents
p95
(lp96
(dp97
Vurl
p98
Vhttps://api.github.com/repos/cryptonomex/graphene/commits/8a8130f620d0ead771469209bb2fc79bb6817006
p99
sVsha
p100
V8a8130f620d0ead771469209bb2fc79bb6817006
p101
sVhtml_url
p102
Vhttps://github.com/cryptonomex/graphene/commit/8a8130f620d0ead771469209bb2fc79bb6817006
p103
sasVcommit
p104
(dp105
Vcommitter
p106
(dp107
Vdate
p108
V2015-07-31T21:56:27Z
p109
sVname
p110
VNathan Hourt
p111
sVemail
p112
Vnat.hourt@gmail.com
p113
ssVauthor
p114
(dp115
Vdate
p116
V2015-07-31T15:16:19Z
p117
sVname
p118
VNathan Hourt
p119
sVemail
p120
Vnat.hourt@gmail.com
p121
ssVurl
p122
Vhttps://api.github.com/repos/cryptonomex/graphene/git/commits/02682e761c5c9c485050763ea4abd5625947e8aa
p123
sVtree
p124
(dp125
Vurl
p126
Vhttps://api.github.com/repos/cryptonomex/graphene/git/trees/70133481d461cb4c8e2304568a4e8afb075f1fe2
p127
sVsha
p128
V70133481d461cb4c8e2304568a4e8afb075f1fe2
p129
ssVcomment_count
p130
I0
sVmessage
p131
V[GUI] Add option to encrypt transfer memos\u000a\u000aAlso, refactor common unlocking finish/cancel buttons into a reusable\u000acomponent
p132
sssS'_author'
p133
(igithub.GithubObject
_ValuedAttribute
p134
(dp135
g15
g6
(cgithub.NamedUser
NamedUser
p136
g8
Ntp137
Rp138
(dp139
S'_location'
p140
(igithub.GithubObject
_NotSetType
p141
(dp142
bsS'_plan'
p143
g141
sS'_total_private_repos'
p144
g141
sS'_followers_url'
p145
(igithub.GithubObject
_ValuedAttribute
p146
(dp147
g15
g88
sbsS'_email'
p148
g141
sS'_login'
p149
(igithub.GithubObject
_ValuedAttribute
p150
(dp151
g15
g83
sbsS'_CompletableGithubObject__completed'
p152
I00
sS'_private_gists'
p153
g141
sS'_following_url'
p154
(igithub.GithubObject
_ValuedAttribute
p155
(dp156
g15
g59
sbsS'_disk_usage'
p157
g141
sS'_hireable'
p158
g141
sS'_public_gists'
p159
g141
sS'_organizations_url'
p160
(igithub.GithubObject
_ValuedAttribute
p161
(dp162
g15
g63
sbsS'_created_at'
p163
g141
sS'_html_url'
p164
(igithub.GithubObject
_ValuedAttribute
p165
(dp166
g15
g69
sbsS'_gists_url'
p167
(igithub.GithubObject
_ValuedAttribute
p168
(dp169
g15
g67
sbsS'_blog'
p170
g141
sS'_collaborators'
p171
g141
sS'_type'
p172
(igithub.GithubObject
_ValuedAttribute
p173
(dp174
g15
g85
sbsS'_updated_at'
p175
g141
sS'_followers'
p176
g141
sS'_company'
p177
g141
sS'_avatar_url'
p178
(igithub.GithubObject
_ValuedAttribute
p179
(dp180
g15
g73
sbsS'_bio'
p181
g141
sS'_repos_url'
p182
(igithub.GithubObject
_ValuedAttribute
p183
(dp184
g15
g75
sbsS'_subscriptions_url'
p185
(igithub.GithubObject
_ValuedAttribute
p186
(dp187
g15
g71
sbsS'_events_url'
p188
(igithub.GithubObject
_ValuedAttribute
p189
(dp190
g15
g61
sbsS'_headers'
p191
(dp192
S'content-length'
p193
S'21889'
p194
sS'vary'
p195
S'Accept, Authorization, Cookie, X-GitHub-OTP, Accept-Encoding'
p196
sS'x-github-media-type'
p197
S'github.v3; format=json'
p198
sS'x-oauth-scopes'
p199
S'gist, repo, user'
p200
sS'x-xss-protection'
p201
S'1; mode=block'
p202
sS'x-content-type-options'
p203
S'nosniff'
p204
sS'x-accepted-oauth-scopes'
p205
S''
p206
sS'etag'
p207
S'"d0465caae70511a0d044d0b8deeb73d1"'
p208
sS'cache-control'
p209
S'private, max-age=60, s-maxage=60'
p210
sS'status'
p211
S'200 OK'
p212
sS'x-ratelimit-remaining'
p213
S'4997'
p214
sS'x-served-by'
p215
S'474556b853193c38f1b14328ce2d1b7d'
p216
sS'access-control-expose-headers'
p217
S'ETag, Link, X-GitHub-OTP, X-RateLimit-Limit, X-RateLimit-Remaining, X-RateLimit-Reset, X-OAuth-Scopes, X-Accepted-OAuth-Scopes, X-Poll-Interval'
p218
sS'x-github-request-id'
p219
S'4CFA549C:65B8:C9C72D7:55C122C2'
p220
sS'access-control-allow-credentials'
p221
S'true'
p222
sS'last-modified'
p223
S'Mon, 03 Aug 2015 20:22:23 GMT'
p224
sS'date'
p225
S'Tue, 04 Aug 2015 20:38:26 GMT'
p226
sS'access-control-allow-origin'
p227
S'*'
p228
sS'content-security-policy'
p229
S"default-src 'none'"
p230
sS'strict-transport-security'
p231
S'max-age=31536000; includeSubdomains; preload'
p232
sS'server'
p233
S'GitHub.com'
p234
sS'x-ratelimit-limit'
p235
S'5000'
p236
sS'x-frame-options'
p237
S'deny'
p238
sS'content-type'
p239
S'application/json; charset=utf-8'
p240
sS'x-ratelimit-reset'
p241
S'1438724305'
p242
ssS'_gravatar_id'
p243
(igithub.GithubObject
_ValuedAttribute
p244
(dp245
g15
g45
sbsS'_starred_url'
p246
(igithub.GithubObject
_ValuedAttribute
p247
(dp248
g15
g80
sbsS'_following'
p249
g141
sg20
g57
sS'_name'
p250
g141
sS'_public_repos'
p251
g141
sS'_owned_private_repos'
p252
g141
sS'_url'
p253
(igithub.GithubObject
_ValuedAttribute
p254
(dp255
g15
g65
sbsS'_contributions'
p256
g141
sS'_id'
p257
(igithub.GithubObject
_ValuedAttribute
p258
(dp259
g15
I271977
sbsS'_received_events_url'
p260
(igithub.GithubObject
_ValuedAttribute
p261
(dp262
g15
g77
sbsS'_requester'
p263
(igithub.Requester
Requester
p264
(dp265
S'_frameCount'
p266
I0
sS'_Requester__userAgent'
p267
S'PyGithub/Python'
p268
sS'rate_limiting_resettime'
p269
I1438724305
sS'_Requester__prefix'
p270
g206
sS'_Requester__clientSecret'
p271
NsS'_Requester__authorizationHeader'
p272
S'token 24eccd3a3dd071ebb15c99d307e2a0921f14937e'
p273
sS'FIX_REPO_GET_GIT_REF'
p274
I01
sS'_Requester__clientId'
p275
NsS'_Requester__base_url'
p276
S'https://api.github.com'
p277
sS'_Requester__timeout'
p278
I10
sS'_Requester__scheme'
p279
S'https'
p280
sS'oauth_scopes'
p281
(lp282
S'gist'
p283
aS'repo'
p284
aS'user'
p285
asS'_frameBuffer'
p286
(lp287
sS'_Requester__hostname'
p288
S'api.github.com'
p289
sS'rate_limiting'
p290
(I4997
I5000
tp291
sS'per_page'
p292
I30
sS'_Requester__connectionClass'
p293
chttplib
HTTPSConnection
p294
sS'_Requester__port'
p295
NsbsbsbsS'_files'
p296
g141
sg164
(igithub.GithubObject
_ValuedAttribute
p297
(dp298
g15
g93
sbsg263
g264
sg253
(igithub.GithubObject
_ValuedAttribute
p299
(dp300
g15
g90
sbsS'_committer'
p301
(igithub.GithubObject
_ValuedAttribute
p302
(dp303
g15
g6
(g136
g8
Ntp304
Rp305
(dp306
g140
g141
sg143
g141
sg144
g141
sg145
(igithub.GithubObject
_ValuedAttribute
p307
(dp308
g15
g55
sbsg148
g141
sg149
(igithub.GithubObject
_ValuedAttribute
p309
(dp310
g15
g50
sbsg152
I00
sg153
g141
sg154
(igithub.GithubObject
_ValuedAttribute
p311
(dp312
g15
g25
sbsg157
g141
sg158
g141
sg159
g141
sg160
(igithub.GithubObject
_ValuedAttribute
p313
(dp314
g15
g29
sbsg163
g141
sg164
(igithub.GithubObject
_ValuedAttribute
p315
(dp316
g15
g35
sbsg167
(igithub.GithubObject
_ValuedAttribute
p317
(dp318
g15
g33
sbsg170
g141
sg171
g141
sg172
(igithub.GithubObject
_ValuedAttribute
p319
(dp320
g15
g52
sbsg175
g141
sg176
g141
sg177
g141
sg178
(igithub.GithubObject
_ValuedAttribute
p321
(dp322
g15
g39
sbsg181
g141
sg182
(igithub.GithubObject
_ValuedAttribute
p323
(dp324
g15
g41
sbsg185
(igithub.GithubObject
_ValuedAttribute
p325
(dp326
g15
g37
sbsg188
(igithub.GithubObject
_ValuedAttribute
p327
(dp328
g15
g27
sbsg191
g192
sg243
(igithub.GithubObject
_ValuedAttribute
p329
(dp330
g15
g45
sbsg246
(igithub.GithubObject
_ValuedAttribute
p331
(dp332
g15
g47
sbsg249
g141
sg20
g23
sg250
g141
sg251
g141
sg252
g141
sg253
(igithub.GithubObject
_ValuedAttribute
p333
(dp334
g15
g31
sbsg256
g141
sg257
(igithub.GithubObject
_ValuedAttribute
p335
(dp336
g15
I271977
sbsg260
(igithub.GithubObject
_ValuedAttribute
p337
(dp338
g15
g43
sbsg263
g264
sbsbsg152
I00
sS'_stats'
p339
g141
sS'_commit'
p340
(igithub.GithubObject
_ValuedAttribute
p341
(dp342
g15
g6
(cgithub.GitCommit
GitCommit
p343
g8
Ntp344
Rp345
(dp346
g12
g141
sg20
g105
sS'_message'
p347
(igithub.GithubObject
_ValuedAttribute
p348
(dp349
g15
V[GUI] Add option to encrypt transfer memos\u000a\u000aAlso, refactor common unlocking finish/cancel buttons into a reusable\u000acomponent
p350
sbsg133
(igithub.GithubObject
_ValuedAttribute
p351
(dp352
g15
g6
(cgithub.GitAuthor
GitAuthor
p353
g8
Ntp354
Rp355
(dp356
g191
g192
sg20
g115
sg250
(igithub.GithubObject
_ValuedAttribute
p357
(dp358
g15
g119
sbsg148
(igithub.GithubObject
_ValuedAttribute
p359
(dp360
g15
g121
sbsg263
g264
sS'_date'
p361
(igithub.GithubObject
_ValuedAttribute
p362
(dp363
g15
cdatetime
datetime
p364
(S'\x07\xdf\x07\x1f\x0f\x10\x13\x00\x00\x00'
p365
tp366
Rp367
sbsbsbsg164
g141
sg263
g264
sg253
(igithub.GithubObject
_ValuedAttribute
p368
(dp369
g15
g123
sbsg301
(igithub.GithubObject
_ValuedAttribute
p370
(dp371
g15
g6
(g353
g8
Ntp372
Rp373
(dp374
g191
g192
sg20
g107
sg250
(igithub.GithubObject
_ValuedAttribute
p375
(dp376
g15
g111
sbsg148
(igithub.GithubObject
_ValuedAttribute
p377
(dp378
g15
g113
sbsg263
g264
sg361
(igithub.GithubObject
_ValuedAttribute
p379
(dp380
g15
g364
(S'\x07\xdf\x07\x1f\x158\x1b\x00\x00\x00'
p381
tp382
Rp383
sbsbsbsg152
I00
sS'_tree'
p384
(igithub.GithubObject
_ValuedAttribute
p385
(dp386
g15
g6
(cgithub.GitTree
GitTree
p387
g8
Ntp388
Rp389
(dp390
g12
(igithub.GithubObject
_ValuedAttribute
p391
(dp392
g15
g129
sbsg20
g125
sg191
g192
sg263
g264
sg253
(igithub.GithubObject
_ValuedAttribute
p393
(dp394
g15
g127
sbsg152
I00
sg384
g141
sbsbsS'_parents'
p395
g141
sg191
g192
sbsbsg395
(igithub.GithubObject
_ValuedAttribute
p396
(dp397
g15
(lp398
g6
(g7
g8
Ntp399
Rp400
(dp401
g12
(igithub.GithubObject
_ValuedAttribute
p402
(dp403
g15
g101
sbsg16
g141
sg20
g97
sg133
g141
sg296
g141
sg164
(igithub.GithubObject
_ValuedAttribute
p404
(dp405
g15
g103
sbsg263
g264
sg253
(igithub.GithubObject
_ValuedAttribute
p406
(dp407
g15
g99
sbsg301
g141
sg152
I00
sg339
g141
sg340
g141
sg395
g141
sg191
g192
sbasbsg191
g192
sbsS'tests'
p408
(dp409
S'app_test'
p410
(dp411
S'duration'
p412
F2.5671589374542236
sS'rc'
p413
I0
ssS'intense_test'
p414
(dp415
g412
F171.9597749710083
sg413
I201
ssS'chain_test'
p416
(dp417
g412
F12.693140029907227
sg413
I0
ssS'performance_test'
p418
(dp419
g412
F10.829561948776245
sg413
I0
sssg413
I0
ssV8a8130f620d0ead771469209bb2fc79bb6817006
p420
(dp421
g5
g6
(g7
g8
Ntp422
Rp423
(dp424
g12
(igithub.GithubObject
_ValuedAttribute
p425
(dp426
g15
g420
sbsg16
(igithub.GithubObject
_ValuedAttribute
p427
(dp428
g15
Vhttps://api.github.com/repos/cryptonomex/graphene/commits/8a8130f620d0ead771469209bb2fc79bb6817006/comments
p429
sbsg20
(dp430
Vcommitter
p431
(dp432
Vfollowing_url
p433
Vhttps://api.github.com/users/vikramrajkumar/following{/other_user}
p434
sVevents_url
p435
Vhttps://api.github.com/users/vikramrajkumar/events{/privacy}
p436
sVorganizations_url
p437
Vhttps://api.github.com/users/vikramrajkumar/orgs
p438
sVurl
p439
Vhttps://api.github.com/users/vikramrajkumar
p440
sVgists_url
p441
Vhttps://api.github.com/users/vikramrajkumar/gists{/gist_id}
p442
sVhtml_url
p443
Vhttps://github.com/vikramrajkumar
p444
sVsubscriptions_url
p445
Vhttps://api.github.com/users/vikramrajkumar/subscriptions
p446
sVavatar_url
p447
Vhttps://avatars.githubusercontent.com/u/793567?v=3
p448
sVrepos_url
p449
Vhttps://api.github.com/users/vikramrajkumar/repos
p450
sVreceived_events_url
p451
Vhttps://api.github.com/users/vikramrajkumar/received_events
p452
sVgravatar_id
p453
g45
sVstarred_url
p454
Vhttps://api.github.com/users/vikramrajkumar/starred{/owner}{/repo}
p455
sVsite_admin
p456
I00
sVlogin
p457
Vvikramrajkumar
p458
sVtype
p459
VUser
p460
sVid
p461
I793567
sVfollowers_url
p462
Vhttps://api.github.com/users/vikramrajkumar/followers
p463
ssVauthor
p464
(dp465
Vfollowing_url
p466
Vhttps://api.github.com/users/vikramrajkumar/following{/other_user}
p467
sVevents_url
p468
Vhttps://api.github.com/users/vikramrajkumar/events{/privacy}
p469
sVorganizations_url
p470
Vhttps://api.github.com/users/vikramrajkumar/orgs
p471
sVurl
p472
Vhttps://api.github.com/users/vikramrajkumar
p473
sVgists_url
p474
Vhttps://api.github.com/users/vikramrajkumar/gists{/gist_id}
p475
sVhtml_url
p476
Vhttps://github.com/vikramrajkumar
p477
sVsubscriptions_url
p478
Vhttps://api.github.com/users/vikramrajkumar/subscriptions
p479
sVavatar_url
p480
Vhttps://avatars.githubusercontent.com/u/793567?v=3
p481
sVrepos_url
p482
Vhttps://api.github.com/users/vikramrajkumar/repos
p483
sVreceived_events_url
p484
Vhttps://api.github.com/users/vikramrajkumar/received_events
p485
sVgravatar_id
p486
g45
sVstarred_url
p487
Vhttps://api.github.com/users/vikramrajkumar/starred{/owner}{/repo}
p488
sVsite_admin
p489
I00
sVlogin
p490
Vvikramrajkumar
p491
sVtype
p492
VUser
p493
sVid
p494
I793567
sVfollowers_url
p495
Vhttps://api.github.com/users/vikramrajkumar/followers
p496
ssVurl
p497
Vhttps://api.github.com/repos/cryptonomex/graphene/commits/8a8130f620d0ead771469209bb2fc79bb6817006
p498
sVcomments_url
p499
g429
sVhtml_url
p500
Vhttps://github.com/cryptonomex/graphene/commit/8a8130f620d0ead771469209bb2fc79bb6817006
p501
sVsha
p502
g420
sVparents
p503
(lp504
(dp505
Vurl
p506
Vhttps://api.github.com/repos/cryptonomex/graphene/commits/0c8b469e648c03e2600bd9bcd999c0b97c11d19d
p507
sVsha
p508
V0c8b469e648c03e2600bd9bcd999c0b97c11d19d
p509
sVhtml_url
p510
Vhttps://github.com/cryptonomex/graphene/commit/0c8b469e648c03e2600bd9bcd999c0b97c11d19d
p511
sasVcommit
p512
(dp513
Vcommitter
p514
(dp515
Vdate
p516
V2015-07-31T20:06:26Z
p517
sVname
p518
VVikram Rajkumar
p519
sVemail
p520
Vvikram@bitshares.org
p521
ssVauthor
p522
(dp523
Vdate
p524
V2015-07-31T20:06:26Z
p525
sVname
p526
VVikram Rajkumar
p527
sVemail
p528
Vvikram@bitshares.org
p529
ssVurl
p530
Vhttps://api.github.com/repos/cryptonomex/graphene/git/commits/8a8130f620d0ead771469209bb2fc79bb6817006
p531
sVtree
p532
(dp533
Vurl
p534
Vhttps://api.github.com/repos/cryptonomex/graphene/git/trees/17fbb1d0ec02f4c27297e43fe5005120623afc6e
p535
sVsha
p536
V17fbb1d0ec02f4c27297e43fe5005120623afc6e
p537
ssVcomment_count
p538
I0
sVmessage
p539
VFix genesis init bug; #17
p540
sssg133
(igithub.GithubObject
_ValuedAttribute
p541
(dp542
g15
g6
(g136
g8
Ntp543
Rp544
(dp545
g140
g141
sg143
g141
sg144
g141
sg145
(igithub.GithubObject
_ValuedAttribute
p546
(dp547
g15
g496
sbsg148
g141
sg149
(igithub.GithubObject
_ValuedAttribute
p548
(dp549
g15
g491
sbsg152
I00
sg153
g141
sg154
(igithub.GithubObject
_ValuedAttribute
p550
(dp551
g15
g467
sbsg157
g141
sg158
g141
sg159
g141
sg160
(igithub.GithubObject
_ValuedAttribute
p552
(dp553
g15
g471
sbsg163
g141
sg164
(igithub.GithubObject
_ValuedAttribute
p554
(dp555
g15
g477
sbsg167
(igithub.GithubObject
_ValuedAttribute
p556
(dp557
g15
g475
sbsg170
g141
sg171
g141
sg172
(igithub.GithubObject
_ValuedAttribute
p558
(dp559
g15
g493
sbsg175
g141
sg176
g141
sg177
g141
sg178
(igithub.GithubObject
_ValuedAttribute
p560
(dp561
g15
g481
sbsg181
g141
sg182
(igithub.GithubObject
_ValuedAttribute
p562
(dp563
g15
g483
sbsg185
(igithub.GithubObject
_ValuedAttribute
p564
(dp565
g15
g479
sbsg188
(igithub.GithubObject
_ValuedAttribute
p566
(dp567
g15
g469
sbsg191
g192
sg243
(igithub.GithubObject
_ValuedAttribute
p568
(dp569
g15
g45
sbsg246
(igithub.GithubObject
_ValuedAttribute
p570
(dp571
g15
g488
sbsg249
g141
sg20
g465
sg250
g141
sg251
g141
sg252
g141
sg253
(igithub.GithubObject
_ValuedAttribute
p572
(dp573
g15
g473
sbsg256
g141
sg257
(igithub.GithubObject
_ValuedAttribute
p574
(dp575
g15
I793567
sbsg260
(igithub.GithubObject
_ValuedAttribute
p576
(dp577
g15
g485
sbsg263
g264
sbsbsg296
g141
sg164
(igithub.GithubObject
_ValuedAttribute
p578
(dp579
g15
g501
sbsg263
g264
sg253
(igithub.GithubObject
_ValuedAttribute
p580
(dp581
g15
g498
sbsg301
(igithub.GithubObject
_ValuedAttribute
p582
(dp583
g15
g6
(g136
g8
Ntp584
Rp585
(dp586
g140
g141
sg143
g141
sg144
g141
sg145
(igithub.GithubObject
_ValuedAttribute
p587
(dp588
g15
g463
sbsg148
g141
sg149
(igithub.GithubObject
_ValuedAttribute
p589
(dp590
g15
g458
sbsg152
I00
sg153
g141
sg154
(igithub.GithubObject
_ValuedAttribute
p591
(dp592
g15
g434
sbsg157
g141
sg158
g141
sg159
g141
sg160
(igithub.GithubObject
_ValuedAttribute
p593
(dp594
g15
g438
sbsg163
g141
sg164
(igithub.GithubObject
_ValuedAttribute
p595
(dp596
g15
g444
sbsg167
(igithub.GithubObject
_ValuedAttribute
p597
(dp598
g15
g442
sbsg170
g141
sg171
g141
sg172
(igithub.GithubObject
_ValuedAttribute
p599
(dp600
g15
g460
sbsg175
g141
sg176
g141
sg177
g141
sg178
(igithub.GithubObject
_ValuedAttribute
p601
(dp602
g15
g448
sbsg181
g141
sg182
(igithub.GithubObject
_ValuedAttribute
p603
(dp604
g15
g450
sbsg185
(igithub.GithubObject
_ValuedAttribute
p605
(dp606
g15
g446
sbsg188
(igithub.GithubObject
_ValuedAttribute
p607
(dp608
g15
g436
sbsg191
g192
sg243
(igithub.GithubObject
_ValuedAttribute
p609
(dp610
g15
g45
sbsg246
(igithub.GithubObject
_ValuedAttribute
p611
(dp612
g15
g455
sbsg249
g141
sg20
g432
sg250
g141
sg251
g141
sg252
g141
sg253
(igithub.GithubObject
_ValuedAttribute
p613
(dp614
g15
g440
sbsg256
g141
sg257
(igithub.GithubObject
_ValuedAttribute
p615
(dp616
g15
I793567
sbsg260
(igithub.GithubObject
_ValuedAttribute
p617
(dp618
g15
g452
sbsg263
g264
sbsbsg152
I00
sg339
g141
sg340
(igithub.GithubObject
_ValuedAttribute
p619
(dp620
g15
g6
(g343
g8
Ntp621
Rp622
(dp623
g12
g141
sg20
g513
sg347
(igithub.GithubObject
_ValuedAttribute
p624
(dp625
g15
g540
sbsg133
(igithub.GithubObject
_ValuedAttribute
p626
(dp627
g15
g6
(g353
g8
Ntp628
Rp629
(dp630
g191
g192
sg20
g523
sg250
(igithub.GithubObject
_ValuedAttribute
p631
(dp632
g15
g527
sbsg148
(igithub.GithubObject
_ValuedAttribute
p633
(dp634
g15
g529
sbsg263
g264
sg361
(igithub.GithubObject
_ValuedAttribute
p635
(dp636
g15
g364
(S'\x07\xdf\x07\x1f\x14\x06\x1a\x00\x00\x00'
p637
tp638
Rp639
sbsbsbsg164
g141
sg263
g264
sg253
(igithub.GithubObject
_ValuedAttribute
p640
(dp641
g15
g531
sbsg301
(igithub.GithubObject
_ValuedAttribute
p642
(dp643
g15
g6
(g353
g8
Ntp644
Rp645
(dp646
g191
g192
sg20
g515
sg250
(igithub.GithubObject
_ValuedAttribute
p647
(dp648
g15
g519
sbsg148
(igithub.GithubObject
_ValuedAttribute
p649
(dp650
g15
g521
sbsg263
g264
sg361
(igithub.GithubObject
_ValuedAttribute
p651
(dp652
g15
g364
(S'\x07\xdf\x07\x1f\x14\x06\x1a\x00\x00\x00'
p653
tp654
Rp655
sbsbsbsg152
I00
sg384
(igithub.GithubObject
_ValuedAttribute
p656
(dp657
g15
g6
(g387
g8
Ntp658
Rp659
(dp660
g12
(igithub.GithubObject
_ValuedAttribute
p661
(dp662
g15
g537
sbsg20
g533
sg191
g192
sg263
g264
sg253
(igithub.GithubObject
_ValuedAttribute
p663
(dp664
g15
g535
sbsg152
I00
sg384
g141
sbsbsg395
g141
sg191
g192
sbsbsg395
(igithub.GithubObject
_ValuedAttribute
p665
(dp666
g15
(lp667
g6
(g7
g8
Ntp668
Rp669
(dp670
g12
(igithub.GithubObject
_ValuedAttribute
p671
(dp672
g15
g509
sbsg16
g141
sg20
g505
sg133
g141
sg296
g141
sg164
(igithub.GithubObject
_ValuedAttribute
p673
(dp674
g15
g511
sbsg263
g264
sg253
(igithub.GithubObject
_ValuedAttribute
p675
(dp676
g15
g507
sbsg301
g141
sg152
I00
sg339
g141
sg340
g141
sg395
g141
sg191
g192
sbasbsg191
g192
sbsg408
(dp677
g410
(dp678
g412
F2.4745430946350098
sg413
I0
ssg414
(dp679
g412
F171.36020016670227
sg413
I201
ssg416
(dp680
g412
F12.473970174789429
sg413
I0
ssg418
(dp681
g412
F10.483597040176392
sg413
I0
sssg413
I0
ssV543c505e4030c52e0262ae957a4b40a739f07ff0
p682
(dp683
g5
g6
(g7
g8
Ntp684
Rp685
(dp686
g12
(igithub.GithubObject
_ValuedAttribute
p687
(dp688
g15
g682
sbsg16
(igithub.GithubObject
_ValuedAttribute
p689
(dp690
g15
Vhttps://api.github.com/repos/cryptonomex/graphene/commits/543c505e4030c52e0262ae957a4b40a739f07ff0/comments
p691
sbsg20
(dp692
Vcommitter
p693
(dp694
Vfollowing_url
p695
Vhttps://api.github.com/users/nathanhourt/following{/other_user}
p696
sVevents_url
p697
Vhttps://api.github.com/users/nathanhourt/events{/privacy}
p698
sVorganizations_url
p699
Vhttps://api.github.com/users/nathanhourt/orgs
p700
sVurl
p701
Vhttps://api.github.com/users/nathanhourt
p702
sVgists_url
p703
Vhttps://api.github.com/users/nathanhourt/gists{/gist_id}
p704
sVhtml_url
p705
Vhttps://github.com/nathanhourt
p706
sVsubscriptions_url
p707
Vhttps://api.github.com/users/nathanhourt/subscriptions
p708
sVavatar_url
p709
Vhttps://avatars.githubusercontent.com/u/271977?v=3
p710
sVrepos_url
p711
Vhttps://api.github.com/users/nathanhourt/repos
p712
sVreceived_events_url
p713
Vhttps://api.github.com/users/nathanhourt/received_events
p714
sVgravatar_id
p715
g45
sVstarred_url
p716
Vhttps://api.github.com/users/nathanhourt/starred{/owner}{/repo}
p717
sVsite_admin
p718
I00
sVlogin
p719
Vnathanhourt
p720
sVtype
p721
VUser
p722
sVid
p723
I271977
sVfollowers_url
p724
Vhttps://api.github.com/users/nathanhourt/followers
p725
ssVauthor
p726
(dp727
Vfollowing_url
p728
Vhttps://api.github.com/users/nathanhourt/following{/other_user}
p729
sVevents_url
p730
Vhttps://api.github.com/users/nathanhourt/events{/privacy}
p731
sVorganizations_url
p732
Vhttps://api.github.com/users/nathanhourt/orgs
p733
sVurl
p734
Vhttps://api.github.com/users/nathanhourt
p735
sVgists_url
p736
Vhttps://api.github.com/users/nathanhourt/gists{/gist_id}
p737
sVhtml_url
p738
Vhttps://github.com/nathanhourt
p739
sVsubscriptions_url
p740
Vhttps://api.github.com/users/nathanhourt/subscriptions
p741
sVavatar_url
p742
Vhttps://avatars.githubusercontent.com/u/271977?v=3
p743
sVrepos_url
p744
Vhttps://api.github.com/users/nathanhourt/repos
p745
sVreceived_events_url
p746
Vhttps://api.github.com/users/nathanhourt/received_events
p747
sVgravatar_id
p748
g45
sVstarred_url
p749
Vhttps://api.github.com/users/nathanhourt/starred{/owner}{/repo}
p750
sVsite_admin
p751
I00
sVlogin
p752
Vnathanhourt
p753
sVtype
p754
VUser
p755
sVid
p756
I271977
sVfollowers_url
p757
Vhttps://api.github.com/users/nathanhourt/followers
p758
ssVurl
p759
Vhttps://api.github.com/repos/cryptonomex/graphene/commits/543c505e4030c52e0262ae957a4b40a739f07ff0
p760
sVcomments_url
p761
g691
sVhtml_url
p762
Vhttps://github.com/cryptonomex/graphene/commit/543c505e4030c52e0262ae957a4b40a739f07ff0
p763
sVsha
p764
g682
sVparents
p765
(lp766
(dp767
Vurl
p768
Vhttps://api.github.com/repos/cryptonomex/graphene/commits/eda4bae359c44e01486053c594729b443326eb80
p769
sVsha
p770
Veda4bae359c44e01486053c594729b443326eb80
p771
sVhtml_url
p772
Vhttps://github.com/cryptonomex/graphene/commit/eda4bae359c44e01486053c594729b443326eb80
p773
sasVcommit
p774
(dp775
Vcommitter
p776
(dp777
Vdate
p778
V2015-08-03T18:59:34Z
p779
sVname
p780
VNathan Hourt
p781
sVemail
p782
Vnat.hourt@gmail.com
p783
ssVauthor
p784
(dp785
Vdate
p786
V2015-08-03T18:59:34Z
p787
sVname
p788
VNathan Hourt
p789
sVemail
p790
Vnat.hourt@gmail.com
p791
ssVurl
p792
Vhttps://api.github.com/repos/cryptonomex/graphene/git/commits/543c505e4030c52e0262ae957a4b40a739f07ff0
p793
sVtree
p794
(dp795
Vurl
p796
Vhttps://api.github.com/repos/cryptonomex/graphene/git/trees/6d7ed1afea1057bec3fbd68db8deaa699c94a365
p797
sVsha
p798
V6d7ed1afea1057bec3fbd68db8deaa699c94a365
p799
ssVcomment_count
p800
I0
sVmessage
p801
V[GUI] Tweaks, bug fixes, facelifts
p802
sssg133
(igithub.GithubObject
_ValuedAttribute
p803
(dp804
g15
g6
(g136
g8
Ntp805
Rp806
(dp807
g140
g141
sg143
g141
sg144
g141
sg145
(igithub.GithubObject
_ValuedAttribute
p808
(dp809
g15
g758
sbsg148
g141
sg149
(igithub.GithubObject
_ValuedAttribute
p810
(dp811
g15
g753
sbsg152
I00
sg153
g141
sg154
(igithub.GithubObject
_ValuedAttribute
p812
(dp813
g15
g729
sbsg157
g141
sg158
g141
sg159
g141
sg160
(igithub.GithubObject
_ValuedAttribute
p814
(dp815
g15
g733
sbsg163
g141
sg164
(igithub.GithubObject
_ValuedAttribute
p816
(dp817
g15
g739
sbsg167
(igithub.GithubObject
_ValuedAttribute
p818
(dp819
g15
g737
sbsg170
g141
sg171
g141
sg172
(igithub.GithubObject
_ValuedAttribute
p820
(dp821
g15
g755
sbsg175
g141
sg176
g141
sg177
g141
sg178
(igithub.GithubObject
_ValuedAttribute
p822
(dp823
g15
g743
sbsg181
g141
sg182
(igithub.GithubObject
_ValuedAttribute
p824
(dp825
g15
g745
sbsg185
(igithub.GithubObject
_ValuedAttribute
p826
(dp827
g15
g741
sbsg188
(igithub.GithubObject
_ValuedAttribute
p828
(dp829
g15
g731
sbsg191
g192
sg243
(igithub.GithubObject
_ValuedAttribute
p830
(dp831
g15
g45
sbsg246
(igithub.GithubObject
_ValuedAttribute
p832
(dp833
g15
g750
sbsg249
g141
sg20
g727
sg250
g141
sg251
g141
sg252
g141
sg253
(igithub.GithubObject
_ValuedAttribute
p834
(dp835
g15
g735
sbsg256
g141
sg257
(igithub.GithubObject
_ValuedAttribute
p836
(dp837
g15
I271977
sbsg260
(igithub.GithubObject
_ValuedAttribute
p838
(dp839
g15
g747
sbsg263
g264
sbsbsg296
g141
sg164
(igithub.GithubObject
_ValuedAttribute
p840
(dp841
g15
g763
sbsg263
g264
sg253
(igithub.GithubObject
_ValuedAttribute
p842
(dp843
g15
g760
sbsg301
(igithub.GithubObject
_ValuedAttribute
p844
(dp845
g15
g6
(g136
g8
Ntp846
Rp847
(dp848
g140
g141
sg143
g141
sg144
g141
sg145
(igithub.GithubObject
_ValuedAttribute
p849
(dp850
g15
g725
sbsg148
g141
sg149
(igithub.GithubObject
_ValuedAttribute
p851
(dp852
g15
g720
sbsg152
I00
sg153
g141
sg154
(igithub.GithubObject
_ValuedAttribute
p853
(dp854
g15
g696
sbsg157
g141
sg158
g141
sg159
g141
sg160
(igithub.GithubObject
_ValuedAttribute
p855
(dp856
g15
g700
sbsg163
g141
sg164
(igithub.GithubObject
_ValuedAttribute
p857
(dp858
g15
g706
sbsg167
(igithub.GithubObject
_ValuedAttribute
p859
(dp860
g15
g704
sbsg170
g141
sg171
g141
sg172
(igithub.GithubObject
_ValuedAttribute
p861
(dp862
g15
g722
sbsg175
g141
sg176
g141
sg177
g141
sg178
(igithub.GithubObject
_ValuedAttribute
p863
(dp864
g15
g710
sbsg181
g141
sg182
(igithub.GithubObject
_ValuedAttribute
p865
(dp866
g15
g712
sbsg185
(igithub.GithubObject
_ValuedAttribute
p867
(dp868
g15
g708
sbsg188
(igithub.GithubObject
_ValuedAttribute
p869
(dp870
g15
g698
sbsg191
g192
sg243
(igithub.GithubObject
_ValuedAttribute
p871
(dp872
g15
g45
sbsg246
(igithub.GithubObject
_ValuedAttribute
p873
(dp874
g15
g717
sbsg249
g141
sg20
g694
sg250
g141
sg251
g141
sg252
g141
sg253
(igithub.GithubObject
_ValuedAttribute
p875
(dp876
g15
g702
sbsg256
g141
sg257
(igithub.GithubObject
_ValuedAttribute
p877
(dp878
g15
I271977
sbsg260
(igithub.GithubObject
_ValuedAttribute
p879
(dp880
g15
g714
sbsg263
g264
sbsbsg152
I00
sg339
g141
sg340
(igithub.GithubObject
_ValuedAttribute
p881
(dp882
g15
g6
(g343
g8
Ntp883
Rp884
(dp885
g12
g141
sg20
g775
sg347
(igithub.GithubObject
_ValuedAttribute
p886
(dp887
g15
g802
sbsg133
(igithub.GithubObject
_ValuedAttribute
p888
(dp889
g15
g6
(g353
g8
Ntp890
Rp891
(dp892
g191
g192
sg20
g785
sg250
(igithub.GithubObject
_ValuedAttribute
p893
(dp894
g15
g789
sbsg148
(igithub.GithubObject
_ValuedAttribute
p895
(dp896
g15
g791
sbsg263
g264
sg361
(igithub.GithubObject
_ValuedAttribute
p897
(dp898
g15
g364
(S'\x07\xdf\x08\x03\x12;"\x00\x00\x00'
p899
tp900
Rp901
sbsbsbsg164
g141
sg263
g264
sg253
(igithub.GithubObject
_ValuedAttribute
p902
(dp903
g15
g793
sbsg301
(igithub.GithubObject
_ValuedAttribute
p904
(dp905
g15
g6
(g353
g8
Ntp906
Rp907
(dp908
g191
g192
sg20
g777
sg250
(igithub.GithubObject
_ValuedAttribute
p909
(dp910
g15
g781
sbsg148
(igithub.GithubObject
_ValuedAttribute
p911
(dp912
g15
g783
sbsg263
g264
sg361
(igithub.GithubObject
_ValuedAttribute
p913
(dp914
g15
g364
(S'\x07\xdf\x08\x03\x12;"\x00\x00\x00'
p915
tp916
Rp917
sbsbsbsg152
I00
sg384
(igithub.GithubObject
_ValuedAttribute
p918
(dp919
g15
g6
(g387
g8
Ntp920
Rp921
(dp922
g12
(igithub.GithubObject
_ValuedAttribute
p923
(dp924
g15
g799
sbsg20
g795
sg191
g192
sg263
g264
sg253
(igithub.GithubObject
_ValuedAttribute
p925
(dp926
g15
g797
sbsg152
I00
sg384
g141
sbsbsg395
g141
sg191
g192
sbsbsg395
(igithub.GithubObject
_ValuedAttribute
p927
(dp928
g15
(lp929
g6
(g7
g8
Ntp930
Rp931
(dp932
g12
(igithub.GithubObject
_ValuedAttribute
p933
(dp934
g15
g771
sbsg16
g141
sg20
g767
sg133
g141
sg296
g141
sg164
(igithub.GithubObject
_ValuedAttribute
p935
(dp936
g15
g773
sbsg263
g264
sg253
(igithub.GithubObject
_ValuedAttribute
p937
(dp938
g15
g769
sbsg301
g141
sg152
I00
sg339
g141
sg340
g141
sg395
g141
sg191
g192
sbasbsg191
g192
sbsg408
(dp939
g410
(dp940
g412
F2.5180201530456543
sg413
I0
ssg414
(dp941
g412
F170.11185002326965
sg413
I201
ssg416
(dp942
g412
F12.108925819396973
sg413
I0
ssg418
(dp943
g412
F10.867033958435059
sg413
I0
sssg413
I0
ssVeda4bae359c44e01486053c594729b443326eb80
p944
(dp945
g5
g6
(g7
g8
Ntp946
Rp947
(dp948
g12
(igithub.GithubObject
_ValuedAttribute
p949
(dp950
g15
g944
sbsg16
(igithub.GithubObject
_ValuedAttribute
p951
(dp952
g15
Vhttps://api.github.com/repos/cryptonomex/graphene/commits/eda4bae359c44e01486053c594729b443326eb80/comments
p953
sbsg20
(dp954
Vcommitter
p955
(dp956
Vfollowing_url
p957
Vhttps://api.github.com/users/nathanhourt/following{/other_user}
p958
sVevents_url
p959
Vhttps://api.github.com/users/nathanhourt/events{/privacy}
p960
sVorganizations_url
p961
Vhttps://api.github.com/users/nathanhourt/orgs
p962
sVurl
p963
Vhttps://api.github.com/users/nathanhourt
p964
sVgists_url
p965
Vhttps://api.github.com/users/nathanhourt/gists{/gist_id}
p966
sVhtml_url
p967
Vhttps://github.com/nathanhourt
p968
sVsubscriptions_url
p969
Vhttps://api.github.com/users/nathanhourt/subscriptions
p970
sVavatar_url
p971
Vhttps://avatars.githubusercontent.com/u/271977?v=3
p972
sVrepos_url
p973
Vhttps://api.github.com/users/nathanhourt/repos
p974
sVreceived_events_url
p975
Vhttps://api.github.com/users/nathanhourt/received_events
p976
sVgravatar_id
p977
g45
sVstarred_url
p978
Vhttps://api.github.com/users/nathanhourt/starred{/owner}{/repo}
p979
sVsite_admin
p980
I00
sVlogin
p981
Vnathanhourt
p982
sVtype
p983
VUser
p984
sVid
p985
I271977
sVfollowers_url
p986
Vhttps://api.github.com/users/nathanhourt/followers
p987
ssVauthor
p988
(dp989
Vfollowing_url
p990
Vhttps://api.github.com/users/nathanhourt/following{/other_user}
p991
sVevents_url
p992
Vhttps://api.github.com/users/nathanhourt/events{/privacy}
p993
sVorganizations_url
p994
Vhttps://api.github.com/users/nathanhourt/orgs
p995
sVurl
p996
Vhttps://api.github.com/users/nathanhourt
p997
sVgists_url
p998
Vhttps://api.github.com/users/nathanhourt/gists{/gist_id}
p999
sVhtml_url
p1000
Vhttps://github.com/nathanhourt
p1001
sVsubscriptions_url
p1002
Vhttps://api.github.com/users/nathanhourt/subscriptions
p1003
sVavatar_url
p1004
Vhttps://avatars.githubusercontent.com/u/271977?v=3
p1005
sVrepos_url
p1006
Vhttps://api.github.com/users/nathanhourt/repos
p1007
sVreceived_events_url
p1008
Vhttps://api.github.com/users/nathanhourt/received_events
p1009
sVgravatar_id
p1010
g45
sVstarred_url
p1011
Vhttps://api.github.com/users/nathanhourt/starred{/owner}{/repo}
p1012
sVsite_admin
p1013
I00
sVlogin
p1014
Vnathanhourt
p1015
sVtype
p1016
VUser
p1017
sVid
p1018
I271977
sVfollowers_url
p1019
Vhttps://api.github.com/users/nathanhourt/followers
p1020
ssVurl
p1021
Vhttps://api.github.com/repos/cryptonomex/graphene/commits/eda4bae359c44e01486053c594729b443326eb80
p1022
sVcomments_url
p1023
g953
sVhtml_url
p1024
Vhttps://github.com/cryptonomex/graphene/commit/eda4bae359c44e01486053c594729b443326eb80
p1025
sVsha
p1026
g944
sVparents
p1027
(lp1028
(dp1029
Vurl
p1030
Vhttps://api.github.com/repos/cryptonomex/graphene/commits/99d645047349a46ceff1487fb31bc2e67d2a8cdd
p1031
sVsha
p1032
V99d645047349a46ceff1487fb31bc2e67d2a8cdd
p1033
sVhtml_url
p1034
Vhttps://github.com/cryptonomex/graphene/commit/99d645047349a46ceff1487fb31bc2e67d2a8cdd
p1035
sasVcommit
p1036
(dp1037
Vcommitter
p1038
(dp1039
Vdate
p1040
V2015-08-03T15:59:02Z
p1041
sVname
p1042
VNathan Hourt
p1043
sVemail
p1044
Vnat.hourt@gmail.com
p1045
ssVauthor
p1046
(dp1047
Vdate
p1048
V2015-08-03T15:59:02Z
p1049
sVname
p1050
VNathan Hourt
p1051
sVemail
p1052
Vnat.hourt@gmail.com
p1053
ssVurl
p1054
Vhttps://api.github.com/repos/cryptonomex/graphene/git/commits/eda4bae359c44e01486053c594729b443326eb80
p1055
sVtree
p1056
(dp1057
Vurl
p1058
Vhttps://api.github.com/repos/cryptonomex/graphene/git/trees/76250c2d1211ef1169a307bd24f27857df971739
p1059
sVsha
p1060
V76250c2d1211ef1169a307bd24f27857df971739
p1061
ssVcomment_count
p1062
I0
sVmessage
p1063
V[GUI] Transfers now work!
p1064
sssg133
(igithub.GithubObject
_ValuedAttribute
p1065
(dp1066
g15
g6
(g136
g8
Ntp1067
Rp1068
(dp1069
g140
g141
sg143
g141
sg144
g141
sg145
(igithub.GithubObject
_ValuedAttribute
p1070
(dp1071
g15
g1020
sbsg148
g141
sg149
(igithub.GithubObject
_ValuedAttribute
p1072
(dp1073
g15
g1015
sbsg152
I00
sg153
g141
sg154
(igithub.GithubObject
_ValuedAttribute
p1074
(dp1075
g15
g991
sbsg157
g141
sg158
g141
sg159
g141
sg160
(igithub.GithubObject
_ValuedAttribute
p1076
(dp1077
g15
g995
sbsg163
g141
sg164
(igithub.GithubObject
_ValuedAttribute
p1078
(dp1079
g15
g1001
sbsg167
(igithub.GithubObject
_ValuedAttribute
p1080
(dp1081
g15
g999
sbsg170
g141
sg171
g141
sg172
(igithub.GithubObject
_ValuedAttribute
p1082
(dp1083
g15
g1017
sbsg175
g141
sg176
g141
sg177
g141
sg178
(igithub.GithubObject
_ValuedAttribute
p1084
(dp1085
g15
g1005
sbsg181
g141
sg182
(igithub.GithubObject
_ValuedAttribute
p1086
(dp1087
g15
g1007
sbsg185
(igithub.GithubObject
_ValuedAttribute
p1088
(dp1089
g15
g1003
sbsg188
(igithub.GithubObject
_ValuedAttribute
p1090
(dp1091
g15
g993
sbsg191
g192
sg243
(igithub.GithubObject
_ValuedAttribute
p1092
(dp1093
g15
g45
sbsg246
(igithub.GithubObject
_ValuedAttribute
p1094
(dp1095
g15
g1012
sbsg249
g141
sg20
g989
sg250
g141
sg251
g141
sg252
g141
sg253
(igithub.GithubObject
_ValuedAttribute
p1096
(dp1097
g15
g997
sbsg256
g141
sg257
(igithub.GithubObject
_ValuedAttribute
p1098
(dp1099
g15
I271977
sbsg260
(igithub.GithubObject
_ValuedAttribute
p1100
(dp1101
g15
g1009
sbsg263
g264
sbsbsg296
g141
sg164
(igithub.GithubObject
_ValuedAttribute
p1102
(dp1103
g15
g1025
sbsg263
g264
sg253
(igithub.GithubObject
_ValuedAttribute
p1104
(dp1105
g15
g1022
sbsg301
(igithub.GithubObject
_ValuedAttribute
p1106
(dp1107
g15
g6
(g136
g8
Ntp1108
Rp1109
(dp1110
g140
g141
sg143
g141
sg144
g141
sg145
(igithub.GithubObject
_ValuedAttribute
p1111
(dp1112
g15
g987
sbsg148
g141
sg149
(igithub.GithubObject
_ValuedAttribute
p1113
(dp1114
g15
g982
sbsg152
I00
sg153
g141
sg154
(igithub.GithubObject
_ValuedAttribute
p1115
(dp1116
g15
g958
sbsg157
g141
sg158
g141
sg159
g141
sg160
(igithub.GithubObject
_ValuedAttribute
p1117
(dp1118
g15
g962
sbsg163
g141
sg164
(igithub.GithubObject
_ValuedAttribute
p1119
(dp1120
g15
g968
sbsg167
(igithub.GithubObject
_ValuedAttribute
p1121
(dp1122
g15
g966
sbsg170
g141
sg171
g141
sg172
(igithub.GithubObject
_ValuedAttribute
p1123
(dp1124
g15
g984
sbsg175
g141
sg176
g141
sg177
g141
sg178
(igithub.GithubObject
_ValuedAttribute
p1125
(dp1126
g15
g972
sbsg181
g141
sg182
(igithub.GithubObject
_ValuedAttribute
p1127
(dp1128
g15
g974
sbsg185
(igithub.GithubObject
_ValuedAttribute
p1129
(dp1130
g15
g970
sbsg188
(igithub.GithubObject
_ValuedAttribute
p1131
(dp1132
g15
g960
sbsg191
g192
sg243
(igithub.GithubObject
_ValuedAttribute
p1133
(dp1134
g15
g45
sbsg246
(igithub.GithubObject
_ValuedAttribute
p1135
(dp1136
g15
g979
sbsg249
g141
sg20
g956
sg250
g141
sg251
g141
sg252
g141
sg253
(igithub.GithubObject
_ValuedAttribute
p1137
(dp1138
g15
g964
sbsg256
g141
sg257
(igithub.GithubObject
_ValuedAttribute
p1139
(dp1140
g15
I271977
sbsg260
(igithub.GithubObject
_ValuedAttribute
p1141
(dp1142
g15
g976
sbsg263
g264
sbsbsg152
I00
sg339
g141
sg340
(igithub.GithubObject
_ValuedAttribute
p1143
(dp1144
g15
g6
(g343
g8
Ntp1145
Rp1146
(dp1147
g12
g141
sg20
g1037
sg347
(igithub.GithubObject
_ValuedAttribute
p1148
(dp1149
g15
g1064
sbsg133
(igithub.GithubObject
_ValuedAttribute
p1150
(dp1151
g15
g6
(g353
g8
Ntp1152
Rp1153
(dp1154
g191
g192
sg20
g1047
sg250
(igithub.GithubObject
_ValuedAttribute
p1155
(dp1156
g15
g1051
sbsg148
(igithub.GithubObject
_ValuedAttribute
p1157
(dp1158
g15
g1053
sbsg263
g264
sg361
(igithub.GithubObject
_ValuedAttribute
p1159
(dp1160
g15
g364
(S'\x07\xdf\x08\x03\x0f;\x02\x00\x00\x00'
p1161
tp1162
Rp1163
sbsbsbsg164
g141
sg263
g264
sg253
(igithub.GithubObject
_ValuedAttribute
p1164
(dp1165
g15
g1055
sbsg301
(igithub.GithubObject
_ValuedAttribute
p1166
(dp1167
g15
g6
(g353
g8
Ntp1168
Rp1169
(dp1170
g191
g192
sg20
g1039
sg250
(igithub.GithubObject
_ValuedAttribute
p1171
(dp1172
g15
g1043
sbsg148
(igithub.GithubObject
_ValuedAttribute
p1173
(dp1174
g15
g1045
sbsg263
g264
sg361
(igithub.GithubObject
_ValuedAttribute
p1175
(dp1176
g15
g364
(S'\x07\xdf\x08\x03\x0f;\x02\x00\x00\x00'
p1177
tp1178
Rp1179
sbsbsbsg152
I00
sg384
(igithub.GithubObject
_ValuedAttribute
p1180
(dp1181
g15
g6
(g387
g8
Ntp1182
Rp1183
(dp1184
g12
(igithub.GithubObject
_ValuedAttribute
p1185
(dp1186
g15
g1061
sbsg20
g1057
sg191
g192
sg263
g264
sg253
(igithub.GithubObject
_ValuedAttribute
p1187
(dp1188
g15
g1059
sbsg152
I00
sg384
g141
sbsbsg395
g141
sg191
g192
sbsbsg395
(igithub.GithubObject
_ValuedAttribute
p1189
(dp1190
g15
(lp1191
g6
(g7
g8
Ntp1192
Rp1193
(dp1194
g12
(igithub.GithubObject
_ValuedAttribute
p1195
(dp1196
g15
g1033
sbsg16
g141
sg20
g1029
sg133
g141
sg296
g141
sg164
(igithub.GithubObject
_ValuedAttribute
p1197
(dp1198
g15
g1035
sbsg263
g264
sg253
(igithub.GithubObject
_ValuedAttribute
p1199
(dp1200
g15
g1031
sbsg301
g141
sg152
I00
sg339
g141
sg340
g141
sg395
g141
sg191
g192
sbasbsg191
g192
sbsg408
(dp1201
g410
(dp1202
g412
F2.4838929176330566
sg413
I0
ssg414
(dp1203
g412
F169.787859916687
sg413
I201
ssg416
(dp1204
g412
F12.929713010787964
sg413
I0
ssg418
(dp1205
g412
F10.82369089126587
sg413
I0
sssg413
I0
ssV99d645047349a46ceff1487fb31bc2e67d2a8cdd
p1206
(dp1207
g5
g6
(g7
g8
Ntp1208
Rp1209
(dp1210
g12
(igithub.GithubObject
_ValuedAttribute
p1211
(dp1212
g15
g1206
sbsg16
(igithub.GithubObject
_ValuedAttribute
p1213
(dp1214
g15
Vhttps://api.github.com/repos/cryptonomex/graphene/commits/99d645047349a46ceff1487fb31bc2e67d2a8cdd/comments
p1215
sbsg20
(dp1216
Vcommitter
p1217
(dp1218
Vfollowing_url
p1219
Vhttps://api.github.com/users/nathanhourt/following{/other_user}
p1220
sVevents_url
p1221
Vhttps://api.github.com/users/nathanhourt/events{/privacy}
p1222
sVorganizations_url
p1223
Vhttps://api.github.com/users/nathanhourt/orgs
p1224
sVurl
p1225
Vhttps://api.github.com/users/nathanhourt
p1226
sVgists_url
p1227
Vhttps://api.github.com/users/nathanhourt/gists{/gist_id}
p1228
sVhtml_url
p1229
Vhttps://github.com/nathanhourt
p1230
sVsubscriptions_url
p1231
Vhttps://api.github.com/users/nathanhourt/subscriptions
p1232
sVavatar_url
p1233
Vhttps://avatars.githubusercontent.com/u/271977?v=3
p1234
sVrepos_url
p1235
Vhttps://api.github.com/users/nathanhourt/repos
p1236
sVreceived_events_url
p1237
Vhttps://api.github.com/users/nathanhourt/received_events
p1238
sVgravatar_id
p1239
g45
sVstarred_url
p1240
Vhttps://api.github.com/users/nathanhourt/starred{/owner}{/repo}
p1241
sVsite_admin
p1242
I00
sVlogin
p1243
Vnathanhourt
p1244
sVtype
p1245
VUser
p1246
sVid
p1247
I271977
sVfollowers_url
p1248
Vhttps://api.github.com/users/nathanhourt/followers
p1249
ssVauthor
p1250
(dp1251
Vfollowing_url
p1252
Vhttps://api.github.com/users/nathanhourt/following{/other_user}
p1253
sVevents_url
p1254
Vhttps://api.github.com/users/nathanhourt/events{/privacy}
p1255
sVorganizations_url
p1256
Vhttps://api.github.com/users/nathanhourt/orgs
p1257
sVurl
p1258
Vhttps://api.github.com/users/nathanhourt
p1259
sVgists_url
p1260
Vhttps://api.github.com/users/nathanhourt/gists{/gist_id}
p1261
sVhtml_url
p1262
Vhttps://github.com/nathanhourt
p1263
sVsubscriptions_url
p1264
Vhttps://api.github.com/users/nathanhourt/subscriptions
p1265
sVavatar_url
p1266
Vhttps://avatars.githubusercontent.com/u/271977?v=3
p1267
sVrepos_url
p1268
Vhttps://api.github.com/users/nathanhourt/repos
p1269
sVreceived_events_url
p1270
Vhttps://api.github.com/users/nathanhourt/received_events
p1271
sVgravatar_id
p1272
g45
sVstarred_url
p1273
Vhttps://api.github.com/users/nathanhourt/starred{/owner}{/repo}
p1274
sVsite_admin
p1275
I00
sVlogin
p1276
Vnathanhourt
p1277
sVtype
p1278
VUser
p1279
sVid
p1280
I271977
sVfollowers_url
p1281
Vhttps://api.github.com/users/nathanhourt/followers
p1282
ssVurl
p1283
Vhttps://api.github.com/repos/cryptonomex/graphene/commits/99d645047349a46ceff1487fb31bc2e67d2a8cdd
p1284
sVcomments_url
p1285
g1215
sVhtml_url
p1286
Vhttps://github.com/cryptonomex/graphene/commit/99d645047349a46ceff1487fb31bc2e67d2a8cdd
p1287
sVsha
p1288
g1206
sVparents
p1289
(lp1290
(dp1291
Vurl
p1292
Vhttps://api.github.com/repos/cryptonomex/graphene/commits/02682e761c5c9c485050763ea4abd5625947e8aa
p1293
sVsha
p1294
V02682e761c5c9c485050763ea4abd5625947e8aa
p1295
sVhtml_url
p1296
Vhttps://github.com/cryptonomex/graphene/commit/02682e761c5c9c485050763ea4abd5625947e8aa
p1297
sasVcommit
p1298
(dp1299
Vcommitter
p1300
(dp1301
Vdate
p1302
V2015-07-31T21:56:27Z
p1303
sVname
p1304
VNathan Hourt
p1305
sVemail
p1306
Vnat.hourt@gmail.com
p1307
ssVauthor
p1308
(dp1309
Vdate
p1310
V2015-07-31T21:56:22Z
p1311
sVname
p1312
VNathan Hourt
p1313
sVemail
p1314
Vnat.hourt@gmail.com
p1315
ssVurl
p1316
Vhttps://api.github.com/repos/cryptonomex/graphene/git/commits/99d645047349a46ceff1487fb31bc2e67d2a8cdd
p1317
sVtree
p1318
(dp1319
Vurl
p1320
Vhttps://api.github.com/repos/cryptonomex/graphene/git/trees/713ad5146a9711144ebb6449669c95b52f6d32e6
p1321
sVsha
p1322
V713ad5146a9711144ebb6449669c95b52f6d32e6
p1323
ssVcomment_count
p1324
I0
sVmessage
p1325
V[GUI] Implement transaction broadcasting\u000a\u000aStill need to set expiration, so none of the transactions I broadcast\u000awork yet... :( Sadly there is no testnet so I can't finish this. Oh well.\u000aI'm sure it'll be much easier on Monday.
p1326
sssg133
(igithub.GithubObject
_ValuedAttribute
p1327
(dp1328
g15
g6
(g136
g8
Ntp1329
Rp1330
(dp1331
g140
g141
sg143
g141
sg144
g141
sg145
(igithub.GithubObject
_ValuedAttribute
p1332
(dp1333
g15
g1282
sbsg148
g141
sg149
(igithub.GithubObject
_ValuedAttribute
p1334
(dp1335
g15
g1277
sbsg152
I00
sg153
g141
sg154
(igithub.GithubObject
_ValuedAttribute
p1336
(dp1337
g15
g1253
sbsg157
g141
sg158
g141
sg159
g141
sg160
(igithub.GithubObject
_ValuedAttribute
p1338
(dp1339
g15
g1257
sbsg163
g141
sg164
(igithub.GithubObject
_ValuedAttribute
p1340
(dp1341
g15
g1263
sbsg167
(igithub.GithubObject
_ValuedAttribute
p1342
(dp1343
g15
g1261
sbsg170
g141
sg171
g141
sg172
(igithub.GithubObject
_ValuedAttribute
p1344
(dp1345
g15
g1279
sbsg175
g141
sg176
g141
sg177
g141
sg178
(igithub.GithubObject
_ValuedAttribute
p1346
(dp1347
g15
g1267
sbsg181
g141
sg182
(igithub.GithubObject
_ValuedAttribute
p1348
(dp1349
g15
g1269
sbsg185
(igithub.GithubObject
_ValuedAttribute
p1350
(dp1351
g15
g1265
sbsg188
(igithub.GithubObject
_ValuedAttribute
p1352
(dp1353
g15
g1255
sbsg191
g192
sg243
(igithub.GithubObject
_ValuedAttribute
p1354
(dp1355
g15
g45
sbsg246
(igithub.GithubObject
_ValuedAttribute
p1356
(dp1357
g15
g1274
sbsg249
g141
sg20
g1251
sg250
g141
sg251
g141
sg252
g141
sg253
(igithub.GithubObject
_ValuedAttribute
p1358
(dp1359
g15
g1259
sbsg256
g141
sg257
(igithub.GithubObject
_ValuedAttribute
p1360
(dp1361
g15
I271977
sbsg260
(igithub.GithubObject
_ValuedAttribute
p1362
(dp1363
g15
g1271
sbsg263
g264
sbsbsg296
g141
sg164
(igithub.GithubObject
_ValuedAttribute
p1364
(dp1365
g15
g1287
sbsg263
g264
sg253
(igithub.GithubObject
_ValuedAttribute
p1366
(dp1367
g15
g1284
sbsg301
(igithub.GithubObject
_ValuedAttribute
p1368
(dp1369
g15
g6
(g136
g8
Ntp1370
Rp1371
(dp1372
g140
g141
sg143
g141
sg144
g141
sg145
(igithub.GithubObject
_ValuedAttribute
p1373
(dp1374
g15
g1249
sbsg148
g141
sg149
(igithub.GithubObject
_ValuedAttribute
p1375
(dp1376
g15
g1244
sbsg152
I00
sg153
g141
sg154
(igithub.GithubObject
_ValuedAttribute
p1377
(dp1378
g15
g1220
sbsg157
g141
sg158
g141
sg159
g141
sg160
(igithub.GithubObject
_ValuedAttribute
p1379
(dp1380
g15
g1224
sbsg163
g141
sg164
(igithub.GithubObject
_ValuedAttribute
p1381
(dp1382
g15
g1230
sbsg167
(igithub.GithubObject
_ValuedAttribute
p1383
(dp1384
g15
g1228
sbsg170
g141
sg171
g141
sg172
(igithub.GithubObject
_ValuedAttribute
p1385
(dp1386
g15
g1246
sbsg175
g141
sg176
g141
sg177
g141
sg178
(igithub.GithubObject
_ValuedAttribute
p1387
(dp1388
g15
g1234
sbsg181
g141
sg182
(igithub.GithubObject
_ValuedAttribute
p1389
(dp1390
g15
g1236
sbsg185
(igithub.GithubObject
_ValuedAttribute
p1391
(dp1392
g15
g1232
sbsg188
(igithub.GithubObject
_ValuedAttribute
p1393
(dp1394
g15
g1222
sbsg191
g192
sg243
(igithub.GithubObject
_ValuedAttribute
p1395
(dp1396
g15
g45
sbsg246
(igithub.GithubObject
_ValuedAttribute
p1397
(dp1398
g15
g1241
sbsg249
g141
sg20
g1218
sg250
g141
sg251
g141
sg252
g141
sg253
(igithub.GithubObject
_ValuedAttribute
p1399
(dp1400
g15
g1226
sbsg256
g141
sg257
(igithub.GithubObject
_ValuedAttribute
p1401
(dp1402
g15
I271977
sbsg260
(igithub.GithubObject
_ValuedAttribute
p1403
(dp1404
g15
g1238
sbsg263
g264
sbsbsg152
I00
sg339
g141
sg340
(igithub.GithubObject
_ValuedAttribute
p1405
(dp1406
g15
g6
(g343
g8
Ntp1407
Rp1408
(dp1409
g12
g141
sg20
g1299
sg347
(igithub.GithubObject
_ValuedAttribute
p1410
(dp1411
g15
V[GUI] Implement transaction broadcasting\u000a\u000aStill need to set expiration, so none of the transactions I broadcast\u000awork yet... :( Sadly there is no testnet so I can't finish this. Oh well.\u000aI'm sure it'll be much easier on Monday.
p1412
sbsg133
(igithub.GithubObject
_ValuedAttribute
p1413
(dp1414
g15
g6
(g353
g8
Ntp1415
Rp1416
(dp1417
g191
g192
sg20
g1309
sg250
(igithub.GithubObject
_ValuedAttribute
p1418
(dp1419
g15
g1313
sbsg148
(igithub.GithubObject
_ValuedAttribute
p1420
(dp1421
g15
g1315
sbsg263
g264
sg361
(igithub.GithubObject
_ValuedAttribute
p1422
(dp1423
g15
g364
(S'\x07\xdf\x07\x1f\x158\x16\x00\x00\x00'
p1424
tp1425
Rp1426
sbsbsbsg164
g141
sg263
g264
sg253
(igithub.GithubObject
_ValuedAttribute
p1427
(dp1428
g15
g1317
sbsg301
(igithub.GithubObject
_ValuedAttribute
p1429
(dp1430
g15
g6
(g353
g8
Ntp1431
Rp1432
(dp1433
g191
g192
sg20
g1301
sg250
(igithub.GithubObject
_ValuedAttribute
p1434
(dp1435
g15
g1305
sbsg148
(igithub.GithubObject
_ValuedAttribute
p1436
(dp1437
g15
g1307
sbsg263
g264
sg361
(igithub.GithubObject
_ValuedAttribute
p1438
(dp1439
g15
g364
(S'\x07\xdf\x07\x1f\x158\x1b\x00\x00\x00'
p1440
tp1441
Rp1442
sbsbsbsg152
I00
sg384
(igithub.GithubObject
_ValuedAttribute
p1443
(dp1444
g15
g6
(g387
g8
Ntp1445
Rp1446
(dp1447
g12
(igithub.GithubObject
_ValuedAttribute
p1448
(dp1449
g15
g1323
sbsg20
g1319
sg191
g192
sg263
g264
sg253
(igithub.GithubObject
_ValuedAttribute
p1450
(dp1451
g15
g1321
sbsg152
I00
sg384
g141
sbsbsg395
g141
sg191
g192
sbsbsg395
(igithub.GithubObject
_ValuedAttribute
p1452
(dp1453
g15
(lp1454
g6
(g7
g8
Ntp1455
Rp1456
(dp1457
g12
(igithub.GithubObject
_ValuedAttribute
p1458
(dp1459
g15
g1295
sbsg16
g141
sg20
g1291
sg133
g141
sg296
g141
sg164
(igithub.GithubObject
_ValuedAttribute
p1460
(dp1461
g15
g1297
sbsg263
g264
sg253
(igithub.GithubObject
_ValuedAttribute
p1462
(dp1463
g15
g1293
sbsg301
g141
sg152
I00
sg339
g141
sg340
g141
sg395
g141
sg191
g192
sbasbsg191
g192
sbsg408
(dp1464
g410
(dp1465
g412
F2.501065969467163
sg413
I0
ssg414
(dp1466
g412
F170.96842885017395
sg413
I201
ssg416
(dp1467
g412
F15.11929988861084
sg413
I0
ssg418
(dp1468
g412
F10.904141902923584
sg413
I0
sssg413
I0
ssV39c05a0b2efae31cbbf2703c9c8822b4d3fc473e
p1469
(dp1470
g5
g6
(g7
g8
Ntp1471
Rp1472
(dp1473
g12
(igithub.GithubObject
_ValuedAttribute
p1474
(dp1475
g15
g1469
sbsg16
(igithub.GithubObject
_ValuedAttribute
p1476
(dp1477
g15
Vhttps://api.github.com/repos/cryptonomex/graphene/commits/39c05a0b2efae31cbbf2703c9c8822b4d3fc473e/comments
p1478
sbsg20
(dp1479
Vcommitter
p1480
(dp1481
Vfollowing_url
p1482
Vhttps://api.github.com/users/bytemaster/following{/other_user}
p1483
sVevents_url
p1484
Vhttps://api.github.com/users/bytemaster/events{/privacy}
p1485
sVorganizations_url
p1486
Vhttps://api.github.com/users/bytemaster/orgs
p1487
sVurl
p1488
Vhttps://api.github.com/users/bytemaster
p1489
sVgists_url
p1490
Vhttps://api.github.com/users/bytemaster/gists{/gist_id}
p1491
sVhtml_url
p1492
Vhttps://github.com/bytemaster
p1493
sVsubscriptions_url
p1494
Vhttps://api.github.com/users/bytemaster/subscriptions
p1495
sVavatar_url
p1496
Vhttps://avatars.githubusercontent.com/u/347290?v=3
p1497
sVrepos_url
p1498
Vhttps://api.github.com/users/bytemaster/repos
p1499
sVreceived_events_url
p1500
Vhttps://api.github.com/users/bytemaster/received_events
p1501
sVgravatar_id
p1502
g45
sVstarred_url
p1503
Vhttps://api.github.com/users/bytemaster/starred{/owner}{/repo}
p1504
sVsite_admin
p1505
I00
sVlogin
p1506
Vbytemaster
p1507
sVtype
p1508
VUser
p1509
sVid
p1510
I347290
sVfollowers_url
p1511
Vhttps://api.github.com/users/bytemaster/followers
p1512
ssVauthor
p1513
(dp1514
Vfollowing_url
p1515
Vhttps://api.github.com/users/bytemaster/following{/other_user}
p1516
sVevents_url
p1517
Vhttps://api.github.com/users/bytemaster/events{/privacy}
p1518
sVorganizations_url
p1519
Vhttps://api.github.com/users/bytemaster/orgs
p1520
sVurl
p1521
Vhttps://api.github.com/users/bytemaster
p1522
sVgists_url
p1523
Vhttps://api.github.com/users/bytemaster/gists{/gist_id}
p1524
sVhtml_url
p1525
Vhttps://github.com/bytemaster
p1526
sVsubscriptions_url
p1527
Vhttps://api.github.com/users/bytemaster/subscriptions
p1528
sVavatar_url
p1529
Vhttps://avatars.githubusercontent.com/u/347290?v=3
p1530
sVrepos_url
p1531
Vhttps://api.github.com/users/bytemaster/repos
p1532
sVreceived_events_url
p1533
Vhttps://api.github.com/users/bytemaster/received_events
p1534
sVgravatar_id
p1535
g45
sVstarred_url
p1536
Vhttps://api.github.com/users/bytemaster/starred{/owner}{/repo}
p1537
sVsite_admin
p1538
I00
sVlogin
p1539
Vbytemaster
p1540
sVtype
p1541
VUser
p1542
sVid
p1543
I347290
sVfollowers_url
p1544
Vhttps://api.github.com/users/bytemaster/followers
p1545
ssVurl
p1546
Vhttps://api.github.com/repos/cryptonomex/graphene/commits/39c05a0b2efae31cbbf2703c9c8822b4d3fc473e
p1547
sVcomments_url
p1548
g1478
sVhtml_url
p1549
Vhttps://github.com/cryptonomex/graphene/commit/39c05a0b2efae31cbbf2703c9c8822b4d3fc473e
p1550
sVsha
p1551
g1469
sVparents
p1552
(lp1553
(dp1554
Vurl
p1555
Vhttps://api.github.com/repos/cryptonomex/graphene/commits/99d645047349a46ceff1487fb31bc2e67d2a8cdd
p1556
sVsha
p1557
V99d645047349a46ceff1487fb31bc2e67d2a8cdd
p1558
sVhtml_url
p1559
Vhttps://github.com/cryptonomex/graphene/commit/99d645047349a46ceff1487fb31bc2e67d2a8cdd
p1560
sasVcommit
p1561
(dp1562
Vcommitter
p1563
(dp1564
Vdate
p1565
V2015-08-03T20:22:19Z
p1566
sVname
p1567
VDaniel Larimer
p1568
sVemail
p1569
Vdlarimer@invictus-innovations.com
p1570
ssVauthor
p1571
(dp1572
Vdate
p1573
V2015-08-03T20:22:19Z
p1574
sVname
p1575
VDaniel Larimer
p1576
sVemail
p1577
Vdlarimer@invictus-innovations.com
p1578
ssVurl
p1579
Vhttps://api.github.com/repos/cryptonomex/graphene/git/commits/39c05a0b2efae31cbbf2703c9c8822b4d3fc473e
p1580
sVtree
p1581
(dp1582
Vurl
p1583
Vhttps://api.github.com/repos/cryptonomex/graphene/git/trees/47e3f2671aee79d0d1aa37a2b0242166677dcb69
p1584
sVsha
p1585
V47e3f2671aee79d0d1aa37a2b0242166677dcb69
p1586
ssVcomment_count
p1587
I0
sVmessage
p1588
Vadding method to get account by name
p1589
sssg133
(igithub.GithubObject
_ValuedAttribute
p1590
(dp1591
g15
g6
(g136
g8
Ntp1592
Rp1593
(dp1594
g140
g141
sg143
g141
sg144
g141
sg145
(igithub.GithubObject
_ValuedAttribute
p1595
(dp1596
g15
g1545
sbsg148
g141
sg149
(igithub.GithubObject
_ValuedAttribute
p1597
(dp1598
g15
g1540
sbsg152
I00
sg153
g141
sg154
(igithub.GithubObject
_ValuedAttribute
p1599
(dp1600
g15
g1516
sbsg157
g141
sg158
g141
sg159
g141
sg160
(igithub.GithubObject
_ValuedAttribute
p1601
(dp1602
g15
g1520
sbsg163
g141
sg164
(igithub.GithubObject
_ValuedAttribute
p1603
(dp1604
g15
g1526
sbsg167
(igithub.GithubObject
_ValuedAttribute
p1605
(dp1606
g15
g1524
sbsg170
g141
sg171
g141
sg172
(igithub.GithubObject
_ValuedAttribute
p1607
(dp1608
g15
g1542
sbsg175
g141
sg176
g141
sg177
g141
sg178
(igithub.GithubObject
_ValuedAttribute
p1609
(dp1610
g15
g1530
sbsg181
g141
sg182
(igithub.GithubObject
_ValuedAttribute
p1611
(dp1612
g15
g1532
sbsg185
(igithub.GithubObject
_ValuedAttribute
p1613
(dp1614
g15
g1528
sbsg188
(igithub.GithubObject
_ValuedAttribute
p1615
(dp1616
g15
g1518
sbsg191
g192
sg243
(igithub.GithubObject
_ValuedAttribute
p1617
(dp1618
g15
g45
sbsg246
(igithub.GithubObject
_ValuedAttribute
p1619
(dp1620
g15
g1537
sbsg249
g141
sg20
g1514
sg250
g141
sg251
g141
sg252
g141
sg253
(igithub.GithubObject
_ValuedAttribute
p1621
(dp1622
g15
g1522
sbsg256
g141
sg257
(igithub.GithubObject
_ValuedAttribute
p1623
(dp1624
g15
I347290
sbsg260
(igithub.GithubObject
_ValuedAttribute
p1625
(dp1626
g15
g1534
sbsg263
g264
sbsbsg296
g141
sg164
(igithub.GithubObject
_ValuedAttribute
p1627
(dp1628
g15
g1550
sbsg263
g264
sg253
(igithub.GithubObject
_ValuedAttribute
p1629
(dp1630
g15
g1547
sbsg301
(igithub.GithubObject
_ValuedAttribute
p1631
(dp1632
g15
g6
(g136
g8
Ntp1633
Rp1634
(dp1635
g140
g141
sg143
g141
sg144
g141
sg145
(igithub.GithubObject
_ValuedAttribute
p1636
(dp1637
g15
g1512
sbsg148
g141
sg149
(igithub.GithubObject
_ValuedAttribute
p1638
(dp1639
g15
g1507
sbsg152
I00
sg153
g141
sg154
(igithub.GithubObject
_ValuedAttribute
p1640
(dp1641
g15
g1483
sbsg157
g141
sg158
g141
sg159
g141
sg160
(igithub.GithubObject
_ValuedAttribute
p1642
(dp1643
g15
g1487
sbsg163
g141
sg164
(igithub.GithubObject
_ValuedAttribute
p1644
(dp1645
g15
g1493
sbsg167
(igithub.GithubObject
_ValuedAttribute
p1646
(dp1647
g15
g1491
sbsg170
g141
sg171
g141
sg172
(igithub.GithubObject
_ValuedAttribute
p1648
(dp1649
g15
g1509
sbsg175
g141
sg176
g141
sg177
g141
sg178
(igithub.GithubObject
_ValuedAttribute
p1650
(dp1651
g15
g1497
sbsg181
g141
sg182
(igithub.GithubObject
_ValuedAttribute
p1652
(dp1653
g15
g1499
sbsg185
(igithub.GithubObject
_ValuedAttribute
p1654
(dp1655
g15
g1495
sbsg188
(igithub.GithubObject
_ValuedAttribute
p1656
(dp1657
g15
g1485
sbsg191
g192
sg243
(igithub.GithubObject
_ValuedAttribute
p1658
(dp1659
g15
g45
sbsg246
(igithub.GithubObject
_ValuedAttribute
p1660
(dp1661
g15
g1504
sbsg249
g141
sg20
g1481
sg250
g141
sg251
g141
sg252
g141
sg253
(igithub.GithubObject
_ValuedAttribute
p1662
(dp1663
g15
g1489
sbsg256
g141
sg257
(igithub.GithubObject
_ValuedAttribute
p1664
(dp1665
g15
I347290
sbsg260
(igithub.GithubObject
_ValuedAttribute
p1666
(dp1667
g15
g1501
sbsg263
g264
sbsbsg152
I00
sg339
g141
sg340
(igithub.GithubObject
_ValuedAttribute
p1668
(dp1669
g15
g6
(g343
g8
Ntp1670
Rp1671
(dp1672
g12
g141
sg20
g1562
sg347
(igithub.GithubObject
_ValuedAttribute
p1673
(dp1674
g15
g1589
sbsg133
(igithub.GithubObject
_ValuedAttribute
p1675
(dp1676
g15
g6
(g353
g8
Ntp1677
Rp1678
(dp1679
g191
g192
sg20
g1572
sg250
(igithub.GithubObject
_ValuedAttribute
p1680
(dp1681
g15
g1576
sbsg148
(igithub.GithubObject
_ValuedAttribute
p1682
(dp1683
g15
g1578
sbsg263
g264
sg361
(igithub.GithubObject
_ValuedAttribute
p1684
(dp1685
g15
g364
(S'\x07\xdf\x08\x03\x14\x16\x13\x00\x00\x00'
p1686
tp1687
Rp1688
sbsbsbsg164
g141
sg263
g264
sg253
(igithub.GithubObject
_ValuedAttribute
p1689
(dp1690
g15
g1580
sbsg301
(igithub.GithubObject
_ValuedAttribute
p1691
(dp1692
g15
g6
(g353
g8
Ntp1693
Rp1694
(dp1695
g191
g192
sg20
g1564
sg250
(igithub.GithubObject
_ValuedAttribute
p1696
(dp1697
g15
g1568
sbsg148
(igithub.GithubObject
_ValuedAttribute
p1698
(dp1699
g15
g1570
sbsg263
g264
sg361
(igithub.GithubObject
_ValuedAttribute
p1700
(dp1701
g15
g364
(S'\x07\xdf\x08\x03\x14\x16\x13\x00\x00\x00'
p1702
tp1703
Rp1704
sbsbsbsg152
I00
sg384
(igithub.GithubObject
_ValuedAttribute
p1705
(dp1706
g15
g6
(g387
g8
Ntp1707
Rp1708
(dp1709
g12
(igithub.GithubObject
_ValuedAttribute
p1710
(dp1711
g15
g1586
sbsg20
g1582
sg191
g192
sg263
g264
sg253
(igithub.GithubObject
_ValuedAttribute
p1712
(dp1713
g15
g1584
sbsg152
I00
sg384
g141
sbsbsg395
g141
sg191
g192
sbsbsg395
(igithub.GithubObject
_ValuedAttribute
p1714
(dp1715
g15
(lp1716
g6
(g7
g8
Ntp1717
Rp1718
(dp1719
g12
(igithub.GithubObject
_ValuedAttribute
p1720
(dp1721
g15
g1558
sbsg16
g141
sg20
g1554
sg133
g141
sg296
g141
sg164
(igithub.GithubObject
_ValuedAttribute
p1722
(dp1723
g15
g1560
sbsg263
g264
sg253
(igithub.GithubObject
_ValuedAttribute
p1724
(dp1725
g15
g1556
sbsg301
g141
sg152
I00
sg339
g141
sg340
g141
sg395
g141
sg191
g192
sbasbsg191
g192
sbsg408
(dp1726
g410
(dp1727
g412
F2.638619899749756
sg413
I0
ssg414
(dp1728
g412
F169.1701419353485
sg413
I201
ssg416
(dp1729
g412
F12.976247072219849
sg413
I0
ssg418
(dp1730
g412
F10.748504877090454
sg413
I0
sssg413
I0
ssV13d83904c9e063b2a22cbfc717e988bab1215505
p1731
(dp1732
S'commit'
p1733
g6
(g7
g8
Ntp1734
Rp1735
(dp1736
g12
(igithub.GithubObject
_ValuedAttribute
p1737
(dp1738
g15
V13d83904c9e063b2a22cbfc717e988bab1215505
p1739
sbsg16
(igithub.GithubObject
_ValuedAttribute
p1740
(dp1741
g15
Vhttps://api.github.com/repos/cryptonomex/graphene/commits/13d83904c9e063b2a22cbfc717e988bab1215505/comments
p1742
sbsg20
(dp1743
Vcommitter
p1744
(dp1745
Vfollowing_url
p1746
Vhttps://api.github.com/users/bytemaster/following{/other_user}
p1747
sVevents_url
p1748
Vhttps://api.github.com/users/bytemaster/events{/privacy}
p1749
sVorganizations_url
p1750
Vhttps://api.github.com/users/bytemaster/orgs
p1751
sVurl
p1752
Vhttps://api.github.com/users/bytemaster
p1753
sVgists_url
p1754
Vhttps://api.github.com/users/bytemaster/gists{/gist_id}
p1755
sVhtml_url
p1756
Vhttps://github.com/bytemaster
p1757
sVsubscriptions_url
p1758
Vhttps://api.github.com/users/bytemaster/subscriptions
p1759
sVavatar_url
p1760
Vhttps://avatars.githubusercontent.com/u/347290?v=3
p1761
sVrepos_url
p1762
Vhttps://api.github.com/users/bytemaster/repos
p1763
sVreceived_events_url
p1764
Vhttps://api.github.com/users/bytemaster/received_events
p1765
sVgravatar_id
p1766
g45
sVstarred_url
p1767
Vhttps://api.github.com/users/bytemaster/starred{/owner}{/repo}
p1768
sVsite_admin
p1769
I00
sVlogin
p1770
Vbytemaster
p1771
sVtype
p1772
VUser
p1773
sVid
p1774
I347290
sVfollowers_url
p1775
Vhttps://api.github.com/users/bytemaster/followers
p1776
ssVstats
p1777
(dp1778
Vdeletions
p1779
I36
sVadditions
p1780
I100
sVtotal
p1781
I136
ssVauthor
p1782
(dp1783
Vfollowing_url
p1784
Vhttps://api.github.com/users/bytemaster/following{/other_user}
p1785
sVevents_url
p1786
Vhttps://api.github.com/users/bytemaster/events{/privacy}
p1787
sVorganizations_url
p1788
Vhttps://api.github.com/users/bytemaster/orgs
p1789
sVurl
p1790
Vhttps://api.github.com/users/bytemaster
p1791
sVgists_url
p1792
Vhttps://api.github.com/users/bytemaster/gists{/gist_id}
p1793
sVhtml_url
p1794
Vhttps://github.com/bytemaster
p1795
sVsubscriptions_url
p1796
Vhttps://api.github.com/users/bytemaster/subscriptions
p1797
sVavatar_url
p1798
Vhttps://avatars.githubusercontent.com/u/347290?v=3
p1799
sVrepos_url
p1800
Vhttps://api.github.com/users/bytemaster/repos
p1801
sVreceived_events_url
p1802
Vhttps://api.github.com/users/bytemaster/received_events
p1803
sVgravatar_id
p1804
g45
sVstarred_url
p1805
Vhttps://api.github.com/users/bytemaster/starred{/owner}{/repo}
p1806
sVsite_admin
p1807
I00
sVlogin
p1808
Vbytemaster
p1809
sVtype
p1810
VUser
p1811
sVid
p1812
I347290
sVfollowers_url
p1813
Vhttps://api.github.com/users/bytemaster/followers
p1814
ssVurl
p1815
Vhttps://api.github.com/repos/cryptonomex/graphene/commits/13d83904c9e063b2a22cbfc717e988bab1215505
p1816
sVcomments_url
p1817
g1742
sVhtml_url
p1818
Vhttps://github.com/cryptonomex/graphene/commit/13d83904c9e063b2a22cbfc717e988bab1215505
p1819
sVsha
p1820
g1739
sVparents
p1821
(lp1822
(dp1823
Vurl
p1824
Vhttps://api.github.com/repos/cryptonomex/graphene/commits/39c05a0b2efae31cbbf2703c9c8822b4d3fc473e
p1825
sVsha
p1826
V39c05a0b2efae31cbbf2703c9c8822b4d3fc473e
p1827
sVhtml_url
p1828
Vhttps://github.com/cryptonomex/graphene/commit/39c05a0b2efae31cbbf2703c9c8822b4d3fc473e
p1829
sa(dp1830
Vurl
p1831
Vhttps://api.github.com/repos/cryptonomex/graphene/commits/543c505e4030c52e0262ae957a4b40a739f07ff0
p1832
sVsha
p1833
V543c505e4030c52e0262ae957a4b40a739f07ff0
p1834
sVhtml_url
p1835
Vhttps://github.com/cryptonomex/graphene/commit/543c505e4030c52e0262ae957a4b40a739f07ff0
p1836
sasVcommit
p1837
(dp1838
Vcommitter
p1839
(dp1840
Vdate
p1841
V2015-08-03T20:22:23Z
p1842
sVname
p1843
VDaniel Larimer
p1844
sVemail
p1845
Vdlarimer@invictus-innovations.com
p1846
ssVauthor
p1847
(dp1848
Vdate
p1849
V2015-08-03T20:22:23Z
p1850
sVname
p1851
VDaniel Larimer
p1852
sVemail
p1853
Vdlarimer@invictus-innovations.com
p1854
ssVurl
p1855
Vhttps://api.github.com/repos/cryptonomex/graphene/git/commits/13d83904c9e063b2a22cbfc717e988bab1215505
p1856
sVtree
p1857
(dp1858
Vurl
p1859
Vhttps://api.github.com/repos/cryptonomex/graphene/git/trees/80f6ebefba2e511f6d59d98be816f2e26e64c039
p1860
sVsha
p1861
V80f6ebefba2e511f6d59d98be816f2e26e64c039
p1862
ssVcomment_count
p1863
I0
sVmessage
p1864
VMerge branch 'master' of https://github.com/cryptonomex/graphene
p1865
sssg133
(igithub.GithubObject
_ValuedAttribute
p1866
(dp1867
g15
g6
(g136
g8
Ntp1868
Rp1869
(dp1870
g140
(igithub.GithubObject
_NotSetType
p1871
(dp1872
bsg143
g1871
sg185
(igithub.GithubObject
_ValuedAttribute
p1873
(dp1874
g15
g1797
sbsg145
(igithub.GithubObject
_ValuedAttribute
p1875
(dp1876
g15
g1814
sbsg175
g1871
sg149
(igithub.GithubObject
_ValuedAttribute
p1877
(dp1878
g15
g1809
sbsg152
I00
sg153
g1871
sg154
(igithub.GithubObject
_ValuedAttribute
p1879
(dp1880
g15
g1785
sbsg157
g1871
sg158
g1871
sg159
g1871
sg178
(igithub.GithubObject
_ValuedAttribute
p1881
(dp1882
g15
g1799
sbsg160
(igithub.GithubObject
_ValuedAttribute
p1883
(dp1884
g15
g1789
sbsg163
g1871
sg164
(igithub.GithubObject
_ValuedAttribute
p1885
(dp1886
g15
g1795
sbsg167
(igithub.GithubObject
_ValuedAttribute
p1887
(dp1888
g15
g1793
sbsg170
g1871
sg171
g1871
sg172
(igithub.GithubObject
_ValuedAttribute
p1889
(dp1890
g15
g1811
sbsg148
g1871
sg176
g1871
sg144
g1871
sg177
g1871
sg188
(igithub.GithubObject
_ValuedAttribute
p1891
(dp1892
g15
g1787
sbsg181
g1871
sg182
(igithub.GithubObject
_ValuedAttribute
p1893
(dp1894
g15
g1801
sbsg191
(dp1895
S'content-length'
p1896
S'16867'
p1897
sS'vary'
p1898
S'Accept, Authorization, Cookie, X-GitHub-OTP, Accept-Encoding'
p1899
sS'x-github-media-type'
p1900
S'github.v3; format=json'
p1901
sS'x-oauth-scopes'
p1902
S'gist, repo, user'
p1903
sS'x-xss-protection'
p1904
S'1; mode=block'
p1905
sS'x-content-type-options'
p1906
S'nosniff'
p1907
sS'x-accepted-oauth-scopes'
p1908
g206
sS'etag'
p1909
S'"afd0d8eaf9fbf4d824611c00f737abaa"'
p1910
sS'cache-control'
p1911
S'private, max-age=60, s-maxage=60'
p1912
sS'status'
p1913
S'200 OK'
p1914
sS'x-ratelimit-remaining'
p1915
S'4973'
p1916
sS'x-served-by'
p1917
S'474556b853193c38f1b14328ce2d1b7d'
p1918
sS'access-control-expose-headers'
p1919
S'ETag, Link, X-GitHub-OTP, X-RateLimit-Limit, X-RateLimit-Remaining, X-RateLimit-Reset, X-OAuth-Scopes, X-Accepted-OAuth-Scopes, X-Poll-Interval'
p1920
sS'x-github-request-id'
p1921
S'4CFA549C:6D8D:11F3A56:55C18EC7'
p1922
sS'access-control-allow-credentials'
p1923
S'true'
p1924
sS'last-modified'
p1925
S'Mon, 03 Aug 2015 20:22:23 GMT'
p1926
sS'date'
p1927
S'Wed, 05 Aug 2015 04:19:19 GMT'
p1928
sS'access-control-allow-origin'
p1929
S'*'
p1930
sS'content-security-policy'
p1931
S"default-src 'none'"
p1932
sS'strict-transport-security'
p1933
S'max-age=31536000; includeSubdomains; preload'
p1934
sS'server'
p1935
S'GitHub.com'
p1936
sS'x-ratelimit-limit'
p1937
S'5000'
p1938
sS'x-frame-options'
p1939
S'deny'
p1940
sS'content-type'
p1941
S'application/json; charset=utf-8'
p1942
sS'x-ratelimit-reset'
p1943
S'1438748510'
p1944
ssg243
(igithub.GithubObject
_ValuedAttribute
p1945
(dp1946
g15
g45
sbsg246
(igithub.GithubObject
_ValuedAttribute
p1947
(dp1948
g15
g1806
sbsg249
g1871
sg20
g1783
sg250
g1871
sg251
g1871
sg252
g1871
sg253
(igithub.GithubObject
_ValuedAttribute
p1949
(dp1950
g15
g1791
sbsg256
g1871
sg257
(igithub.GithubObject
_ValuedAttribute
p1951
(dp1952
g15
I347290
sbsg260
(igithub.GithubObject
_ValuedAttribute
p1953
(dp1954
g15
g1803
sbsg263
(igithub.Requester
Requester
p1955
(dp1956
g266
I0
sg267
S'PyGithub/Python'
p1957
sg269
I1438748510
sg270
g206
sg271
Nsg272
S'token 24eccd3a3dd071ebb15c99d307e2a0921f14937e'
p1958
sg274
I01
sg275
Nsg276
S'https://api.github.com'
p1959
sg278
I10
sg279
S'https'
p1960
sg281
(lp1961
S'gist'
p1962
aS'repo'
p1963
aS'user'
p1964
asg286
(lp1965
sg288
S'api.github.com'
p1966
sg290
(I4973
I5000
tp1967
sg292
I30
sg293
g294
sg295
Nsbsbsbsg296
(igithub.GithubObject
_ValuedAttribute
p1968
(dp1969
g15
(lp1970
g6
(cgithub.File
File
p1971
g8
Ntp1972
Rp1973
(dp1974
g12
(igithub.GithubObject
_ValuedAttribute
p1975
(dp1976
g15
V62a843da5bb3f3dc5ea46c2971bbc762b46a2617
p1977
sbsS'_filename'
p1978
(igithub.GithubObject
_ValuedAttribute
p1979
(dp1980
g15
Vprograms/light_client/ChainDataModel.cpp
p1981
sbsS'_status'
p1982
(igithub.GithubObject
_ValuedAttribute
p1983
(dp1984
g15
Vmodified
p1985
sbsS'_raw_url'
p1986
(igithub.GithubObject
_ValuedAttribute
p1987
(dp1988
g15
Vhttps://github.com/cryptonomex/graphene/raw/13d83904c9e063b2a22cbfc717e988bab1215505/programs/light_client/ChainDataModel.cpp
p1989
sbsg20
(dp1990
Vstatus
p1991
g1985
sVdeletions
p1992
I0
sVraw_url
p1993
g1989
sVblob_url
p1994
Vhttps://github.com/cryptonomex/graphene/blob/13d83904c9e063b2a22cbfc717e988bab1215505/programs/light_client/ChainDataModel.cpp
p1995
sVcontents_url
p1996
Vhttps://api.github.com/repos/cryptonomex/graphene/contents/programs/light_client/ChainDataModel.cpp?ref=13d83904c9e063b2a22cbfc717e988bab1215505
p1997
sVfilename
p1998
g1981
sVsha
p1999
g1977
sVadditions
p2000
I4
sVpatch
p2001
V@@ -88,6 +88,10 @@ Asset* ChainDataModel::getAsset(QString symbol)\u000a    return *itr;\u000a }\u000a \u000a+QDateTime ChainDataModel::chainTime() const {\u000a+   return QDateTime::fromTime_t(m_dynamic_global_properties.time.sec_since_epoch());\u000a+}\u000a+\u000a void ChainDataModel::processUpdatedObject(const fc::variant& update)\u000a {\u000a    if (update.is_null())
p2002
sVchanges
p2003
I4
ssS'_changes'
p2004
(igithub.GithubObject
_ValuedAttribute
p2005
(dp2006
g15
I4
sbsg263
g1955
sS'_additions'
p2007
(igithub.GithubObject
_ValuedAttribute
p2008
(dp2009
g15
I4
sbsS'_blob_url'
p2010
(igithub.GithubObject
_ValuedAttribute
p2011
(dp2012
g15
g1995
sbsS'_contents_url'
p2013
(igithub.GithubObject
_ValuedAttribute
p2014
(dp2015
g15
g1997
sbsS'_patch'
p2016
(igithub.GithubObject
_ValuedAttribute
p2017
(dp2018
g15
V@@ -88,6 +88,10 @@ Asset* ChainDataModel::getAsset(QString symbol)\u000a    return *itr;\u000a }\u000a \u000a+QDateTime ChainDataModel::chainTime() const {\u000a+   return QDateTime::fromTime_t(m_dynamic_global_properties.time.sec_since_epoch());\u000a+}\u000a+\u000a void ChainDataModel::processUpdatedObject(const fc::variant& update)\u000a {\u000a    if (update.is_null())
p2019
sbsS'_deletions'
p2020
(igithub.GithubObject
_ValuedAttribute
p2021
(dp2022
g15
I0
sbsg191
g1895
sbag6
(g1971
g8
Ntp2023
Rp2024
(dp2025
g12
(igithub.GithubObject
_ValuedAttribute
p2026
(dp2027
g15
V39700246679cf606a2344d7d86cd65f8cddfe0f4
p2028
sbsg1978
(igithub.GithubObject
_ValuedAttribute
p2029
(dp2030
g15
Vprograms/light_client/ChainDataModel.hpp
p2031
sbsg1982
(igithub.GithubObject
_ValuedAttribute
p2032
(dp2033
g15
Vmodified
p2034
sbsg1986
(igithub.GithubObject
_ValuedAttribute
p2035
(dp2036
g15
Vhttps://github.com/cryptonomex/graphene/raw/13d83904c9e063b2a22cbfc717e988bab1215505/programs/light_client/ChainDataModel.hpp
p2037
sbsg20
(dp2038
Vstatus
p2039
g2034
sVdeletions
p2040
I0
sVraw_url
p2041
g2037
sVblob_url
p2042
Vhttps://github.com/cryptonomex/graphene/blob/13d83904c9e063b2a22cbfc717e988bab1215505/programs/light_client/ChainDataModel.hpp
p2043
sVcontents_url
p2044
Vhttps://api.github.com/repos/cryptonomex/graphene/contents/programs/light_client/ChainDataModel.hpp?ref=13d83904c9e063b2a22cbfc717e988bab1215505
p2045
sVfilename
p2046
g2031
sVsha
p2047
g2028
sVadditions
p2048
I5
sVpatch
p2049
V@@ -8,6 +8,7 @@\u000a #include "Asset.hpp"\u000a #include "Account.hpp"\u000a \u000a+#include <QDateTime>\u000a #include <QObject>\u000a \u000a using graphene::chain::by_id;\u000a@@ -37,6 +38,7 @@ typedef multi_index_container<\u000a class Transaction;\u000a class ChainDataModel : public QObject {\u000a    Q_OBJECT\u000a+   Q_PROPERTY(QDateTime chainTime READ chainTime NOTIFY blockReceived)\u000a \u000a    void processUpdatedObject(const fc::variant& update);\u000a \u000a@@ -49,6 +51,8 @@ class ChainDataModel : public QObject {\u000a    Q_INVOKABLE Asset* getAsset(ObjectId id);\u000a    Q_INVOKABLE Asset* getAsset(QString symbol);\u000a \u000a+   QDateTime chainTime() const;\u000a+\u000a    ChainDataModel(){}\u000a    ChainDataModel(fc::thread& t, QObject* parent = nullptr);\u000a \u000a@@ -64,6 +68,7 @@ public Q_SLOTS:\u000a Q_SIGNALS:\u000a    void queueExecute(const std::function<void()>&);\u000a    void exceptionThrown(QString message);\u000a+   void blockReceived();\u000a \u000a private:\u000a    fc::thread* m_rpc_thread = nullptr;
p2050
sVchanges
p2051
I5
ssg2004
(igithub.GithubObject
_ValuedAttribute
p2052
(dp2053
g15
I5
sbsg263
g1955
sg2007
(igithub.GithubObject
_ValuedAttribute
p2054
(dp2055
g15
I5
sbsg2010
(igithub.GithubObject
_ValuedAttribute
p2056
(dp2057
g15
g2043
sbsg2013
(igithub.GithubObject
_ValuedAttribute
p2058
(dp2059
g15
g2045
sbsg2016
(igithub.GithubObject
_ValuedAttribute
p2060
(dp2061
g15
V@@ -8,6 +8,7 @@\u000a #include "Asset.hpp"\u000a #include "Account.hpp"\u000a \u000a+#include <QDateTime>\u000a #include <QObject>\u000a \u000a using graphene::chain::by_id;\u000a@@ -37,6 +38,7 @@ typedef multi_index_container<\u000a class Transaction;\u000a class ChainDataModel : public QObject {\u000a    Q_OBJECT\u000a+   Q_PROPERTY(QDateTime chainTime READ chainTime NOTIFY blockReceived)\u000a \u000a    void processUpdatedObject(const fc::variant& update);\u000a \u000a@@ -49,6 +51,8 @@ class ChainDataModel : public QObject {\u000a    Q_INVOKABLE Asset* getAsset(ObjectId id);\u000a    Q_INVOKABLE Asset* getAsset(QString symbol);\u000a \u000a+   QDateTime chainTime() const;\u000a+\u000a    ChainDataModel(){}\u000a    ChainDataModel(fc::thread& t, QObject* parent = nullptr);\u000a \u000a@@ -64,6 +68,7 @@ public Q_SLOTS:\u000a Q_SIGNALS:\u000a    void queueExecute(const std::function<void()>&);\u000a    void exceptionThrown(QString message);\u000a+   void blockReceived();\u000a \u000a private:\u000a    fc::thread* m_rpc_thread = nullptr;
p2062
sbsg2020
(igithub.GithubObject
_ValuedAttribute
p2063
(dp2064
g15
I0
sbsg191
g1895
sbag6
(g1971
g8
Ntp2065
Rp2066
(dp2067
g12
(igithub.GithubObject
_ValuedAttribute
p2068
(dp2069
g15
V9e08ea7e6352a3e6ff24d2d0778789243dd6e630
p2070
sbsg1978
(igithub.GithubObject
_ValuedAttribute
p2071
(dp2072
g15
Vprograms/light_client/Transaction.hpp
p2073
sbsg1982
(igithub.GithubObject
_ValuedAttribute
p2074
(dp2075
g15
Vmodified
p2076
sbsg1986
(igithub.GithubObject
_ValuedAttribute
p2077
(dp2078
g15
Vhttps://github.com/cryptonomex/graphene/raw/13d83904c9e063b2a22cbfc717e988bab1215505/programs/light_client/Transaction.hpp
p2079
sbsg20
(dp2080
Vstatus
p2081
g2076
sVdeletions
p2082
I1
sVraw_url
p2083
g2079
sVblob_url
p2084
Vhttps://github.com/cryptonomex/graphene/blob/13d83904c9e063b2a22cbfc717e988bab1215505/programs/light_client/Transaction.hpp
p2085
sVcontents_url
p2086
Vhttps://api.github.com/repos/cryptonomex/graphene/contents/programs/light_client/Transaction.hpp?ref=13d83904c9e063b2a22cbfc717e988bab1215505
p2087
sVfilename
p2088
g2073
sVsha
p2089
g2070
sVadditions
p2090
I22
sVpatch
p2091
V@@ -3,8 +3,10 @@\u000a \u000a #include <graphene/chain/protocol/transaction.hpp>\u000a \u000a+#include <QDateTime>\u000a #include <QObject>\u000a #include <QQmlListProperty>\u000a+#include <QDebug>\u000a \u000a class OperationBase;\u000a class Transaction : public QObject {\u000a@@ -26,13 +28,19 @@ class Transaction : public QObject {\u000a       return m_transaction;\u000a    }\u000a \u000a-public slots:\u000a+   QDateTime expiration() const\u000a+   {\u000a+      return QDateTime::fromTime_t(m_transaction.expiration.sec_since_epoch());\u000a+   }\u000a+\u000a+public Q_SLOTS:\u000a    void setStatus(Status status)\u000a    {\u000a       if (status == m_status)\u000a          return;\u000a \u000a       m_status = status;\u000a+      qDebug() << status;\u000a       emit statusChanged(status);\u000a    }\u000a \u000a@@ -46,13 +54,26 @@ public slots:\u000a       Q_EMIT operationsChanged();\u000a    }\u000a \u000a+   void setExpiration(QDateTime expiration)\u000a+   {\u000a+      fc::time_point_sec exp(expiration.toTime_t());\u000a+      if (exp == m_transaction.expiration)\u000a+         return;\u000a+\u000a+      m_transaction.expiration = exp;\u000a+      emit expirationChanged(expiration);\u000a+   }\u000a+\u000a signals:\u000a    void statusChanged(Status status);\u000a    void operationsChanged();\u000a \u000a+   void expirationChanged(QDateTime expiration);\u000a+\u000a private:\u000a    Q_PROPERTY(Status status READ status WRITE setStatus NOTIFY statusChanged)\u000a    Q_PROPERTY(QQmlListProperty<OperationBase> operations READ operations NOTIFY operationsChanged)\u000a+   Q_PROPERTY(QDateTime expiration READ expiration WRITE setExpiration NOTIFY expirationChanged)\u000a \u000a    Status m_status = Unbroadcasted;\u000a    graphene::chain::signed_transaction m_transaction;
p2092
sVchanges
p2093
I23
ssg2004
(igithub.GithubObject
_ValuedAttribute
p2094
(dp2095
g15
I23
sbsg263
g1955
sg2007
(igithub.GithubObject
_ValuedAttribute
p2096
(dp2097
g15
I22
sbsg2010
(igithub.GithubObject
_ValuedAttribute
p2098
(dp2099
g15
g2085
sbsg2013
(igithub.GithubObject
_ValuedAttribute
p2100
(dp2101
g15
g2087
sbsg2016
(igithub.GithubObject
_ValuedAttribute
p2102
(dp2103
g15
V@@ -3,8 +3,10 @@\u000a \u000a #include <graphene/chain/protocol/transaction.hpp>\u000a \u000a+#include <QDateTime>\u000a #include <QObject>\u000a #include <QQmlListProperty>\u000a+#include <QDebug>\u000a \u000a class OperationBase;\u000a class Transaction : public QObject {\u000a@@ -26,13 +28,19 @@ class Transaction : public QObject {\u000a       return m_transaction;\u000a    }\u000a \u000a-public slots:\u000a+   QDateTime expiration() const\u000a+   {\u000a+      return QDateTime::fromTime_t(m_transaction.expiration.sec_since_epoch());\u000a+   }\u000a+\u000a+public Q_SLOTS:\u000a    void setStatus(Status status)\u000a    {\u000a       if (status == m_status)\u000a          return;\u000a \u000a       m_status = status;\u000a+      qDebug() << status;\u000a       emit statusChanged(status);\u000a    }\u000a \u000a@@ -46,13 +54,26 @@ public slots:\u000a       Q_EMIT operationsChanged();\u000a    }\u000a \u000a+   void setExpiration(QDateTime expiration)\u000a+   {\u000a+      fc::time_point_sec exp(expiration.toTime_t());\u000a+      if (exp == m_transaction.expiration)\u000a+         return;\u000a+\u000a+      m_transaction.expiration = exp;\u000a+      emit expirationChanged(expiration);\u000a+   }\u000a+\u000a signals:\u000a    void statusChanged(Status status);\u000a    void operationsChanged();\u000a \u000a+   void expirationChanged(QDateTime expiration);\u000a+\u000a private:\u000a    Q_PROPERTY(Status status READ status WRITE setStatus NOTIFY statusChanged)\u000a    Q_PROPERTY(QQmlListProperty<OperationBase> operations READ operations NOTIFY operationsChanged)\u000a+   Q_PROPERTY(QDateTime expiration READ expiration WRITE setExpiration NOTIFY expirationChanged)\u000a \u000a    Status m_status = Unbroadcasted;\u000a    graphene::chain::signed_transaction m_transaction;
p2104
sbsg2020
(igithub.GithubObject
_ValuedAttribute
p2105
(dp2106
g15
I1
sbsg191
g1895
sbag6
(g1971
g8
Ntp2107
Rp2108
(dp2109
g12
(igithub.GithubObject
_ValuedAttribute
p2110
(dp2111
g15
V527679127c3d13752546006407687a049cb75436
p2112
sbsg1978
(igithub.GithubObject
_ValuedAttribute
p2113
(dp2114
g15
Vprograms/light_client/main.cpp
p2115
sbsg1982
(igithub.GithubObject
_ValuedAttribute
p2116
(dp2117
g15
Vmodified
p2118
sbsg1986
(igithub.GithubObject
_ValuedAttribute
p2119
(dp2120
g15
Vhttps://github.com/cryptonomex/graphene/raw/13d83904c9e063b2a22cbfc717e988bab1215505/programs/light_client/main.cpp
p2121
sbsg20
(dp2122
Vstatus
p2123
g2118
sVdeletions
p2124
I0
sVraw_url
p2125
g2121
sVblob_url
p2126
Vhttps://github.com/cryptonomex/graphene/blob/13d83904c9e063b2a22cbfc717e988bab1215505/programs/light_client/main.cpp
p2127
sVcontents_url
p2128
Vhttps://api.github.com/repos/cryptonomex/graphene/contents/programs/light_client/main.cpp?ref=13d83904c9e063b2a22cbfc717e988bab1215505
p2129
sVfilename
p2130
g2115
sVsha
p2131
g2112
sVadditions
p2132
I6
sVpatch
p2133
V@@ -56,6 +56,12 @@ int main(int argc, char *argv[])\u000a    engine.load(QUrl(QStringLiteral("qrc:/main.qml")));\u000a #else\u000a    engine.load(QUrl(QStringLiteral("qml/main.qml")));\u000a+   QFileSystemWatcher watcher;\u000a+   qDebug() << watcher.addPath("qml/");\u000a+   QObject::connect(&watcher, &QFileSystemWatcher::directoryChanged, &engine, [&](QString path) {\u000a+      qDebug() << "Changed file" << path;\u000a+      engine.clearComponentCache();\u000a+   });\u000a #endif\u000a \u000a    return app.exec();
p2134
sVchanges
p2135
I6
ssg2004
(igithub.GithubObject
_ValuedAttribute
p2136
(dp2137
g15
I6
sbsg263
g1955
sg2007
(igithub.GithubObject
_ValuedAttribute
p2138
(dp2139
g15
I6
sbsg2010
(igithub.GithubObject
_ValuedAttribute
p2140
(dp2141
g15
g2127
sbsg2013
(igithub.GithubObject
_ValuedAttribute
p2142
(dp2143
g15
g2129
sbsg2016
(igithub.GithubObject
_ValuedAttribute
p2144
(dp2145
g15
V@@ -56,6 +56,12 @@ int main(int argc, char *argv[])\u000a    engine.load(QUrl(QStringLiteral("qrc:/main.qml")));\u000a #else\u000a    engine.load(QUrl(QStringLiteral("qml/main.qml")));\u000a+   QFileSystemWatcher watcher;\u000a+   qDebug() << watcher.addPath("qml/");\u000a+   QObject::connect(&watcher, &QFileSystemWatcher::directoryChanged, &engine, [&](QString path) {\u000a+      qDebug() << "Changed file" << path;\u000a+      engine.clearComponentCache();\u000a+   });\u000a #endif\u000a \u000a    return app.exec();
p2146
sbsg2020
(igithub.GithubObject
_ValuedAttribute
p2147
(dp2148
g15
I0
sbsg191
g1895
sbag6
(g1971
g8
Ntp2149
Rp2150
(dp2151
g12
(igithub.GithubObject
_ValuedAttribute
p2152
(dp2153
g15
V923ee6c5ec35ce3ae2c8ed71a682103d8f9f07fb
p2154
sbsg1978
(igithub.GithubObject
_ValuedAttribute
p2155
(dp2156
g15
Vprograms/light_client/qml/FormFlipper.qml
p2157
sbsg1982
(igithub.GithubObject
_ValuedAttribute
p2158
(dp2159
g15
Vmodified
p2160
sbsg1986
(igithub.GithubObject
_ValuedAttribute
p2161
(dp2162
g15
Vhttps://github.com/cryptonomex/graphene/raw/13d83904c9e063b2a22cbfc717e988bab1215505/programs/light_client/qml/FormFlipper.qml
p2163
sbsg20
(dp2164
Vstatus
p2165
g2160
sVdeletions
p2166
I2
sVraw_url
p2167
g2163
sVblob_url
p2168
Vhttps://github.com/cryptonomex/graphene/blob/13d83904c9e063b2a22cbfc717e988bab1215505/programs/light_client/qml/FormFlipper.qml
p2169
sVcontents_url
p2170
Vhttps://api.github.com/repos/cryptonomex/graphene/contents/programs/light_client/qml/FormFlipper.qml?ref=13d83904c9e063b2a22cbfc717e988bab1215505
p2171
sVfilename
p2172
g2157
sVsha
p2173
g2154
sVadditions
p2174
I2
sVpatch
p2175
V@@ -16,8 +16,8 @@ Flipable {\u000a    property bool flipped: false\u000a \u000a    Component.onCompleted: {\u000a-      back = backComponent.createObject(flipable, {app: app, enabled: Qt.binding(function(){return flipped})})\u000a-      front = frontComponent.createObject(flipable, {app: app, enabled: Qt.binding(function(){return !flipped})})\u000a+      back = backComponent.createObject(flipable, {app: app, enabled: Qt.binding(function(){return rotation.angle > 90})})\u000a+      front = frontComponent.createObject(flipable, {app: app, enabled: Qt.binding(function(){return rotation.angle < 90})})\u000a       front.canceled.connect(function() { canceled.apply(this, arguments) })\u000a       front.completed.connect(function() {\u000a          back.display.apply(this, arguments)
p2176
sVchanges
p2177
I4
ssg2004
(igithub.GithubObject
_ValuedAttribute
p2178
(dp2179
g15
I4
sbsg263
g1955
sg2007
(igithub.GithubObject
_ValuedAttribute
p2180
(dp2181
g15
I2
sbsg2010
(igithub.GithubObject
_ValuedAttribute
p2182
(dp2183
g15
g2169
sbsg2013
(igithub.GithubObject
_ValuedAttribute
p2184
(dp2185
g15
g2171
sbsg2016
(igithub.GithubObject
_ValuedAttribute
p2186
(dp2187
g15
V@@ -16,8 +16,8 @@ Flipable {\u000a    property bool flipped: false\u000a \u000a    Component.onCompleted: {\u000a-      back = backComponent.createObject(flipable, {app: app, enabled: Qt.binding(function(){return flipped})})\u000a-      front = frontComponent.createObject(flipable, {app: app, enabled: Qt.binding(function(){return !flipped})})\u000a+      back = backComponent.createObject(flipable, {app: app, enabled: Qt.binding(function(){return rotation.angle > 90})})\u000a+      front = frontComponent.createObject(flipable, {app: app, enabled: Qt.binding(function(){return rotation.angle < 90})})\u000a       front.canceled.connect(function() { canceled.apply(this, arguments) })\u000a       front.completed.connect(function() {\u000a          back.display.apply(this, arguments)
p2188
sbsg2020
(igithub.GithubObject
_ValuedAttribute
p2189
(dp2190
g15
I2
sbsg191
g1895
sbag6
(g1971
g8
Ntp2191
Rp2192
(dp2193
g12
(igithub.GithubObject
_ValuedAttribute
p2194
(dp2195
g15
Vd339c4f48ac218e5b9ff96887f777c2cc8909598
p2196
sbsg1978
(igithub.GithubObject
_ValuedAttribute
p2197
(dp2198
g15
Vprograms/light_client/qml/Identicon.qml
p2199
sbsg1982
(igithub.GithubObject
_ValuedAttribute
p2200
(dp2201
g15
Vmodified
p2202
sbsg1986
(igithub.GithubObject
_ValuedAttribute
p2203
(dp2204
g15
Vhttps://github.com/cryptonomex/graphene/raw/13d83904c9e063b2a22cbfc717e988bab1215505/programs/light_client/qml/Identicon.qml
p2205
sbsg20
(dp2206
Vstatus
p2207
g2202
sVdeletions
p2208
I0
sVraw_url
p2209
g2205
sVblob_url
p2210
Vhttps://github.com/cryptonomex/graphene/blob/13d83904c9e063b2a22cbfc717e988bab1215505/programs/light_client/qml/Identicon.qml
p2211
sVcontents_url
p2212
Vhttps://api.github.com/repos/cryptonomex/graphene/contents/programs/light_client/qml/Identicon.qml?ref=13d83904c9e063b2a22cbfc717e988bab1215505
p2213
sVfilename
p2214
g2199
sVsha
p2215
g2196
sVadditions
p2216
I2
sVpatch
p2217
V@@ -17,6 +17,8 @@ Canvas {\u000a          Jdenticon.draw(identicon, name)\u000a       else {\u000a          var context = identicon.context\u000a+         if (!context) return\u000a+\u000a          context.reset()\u000a          var draw_circle = function(context, x, y, radius) {\u000a             context.beginPath()
p2218
sVchanges
p2219
I2
ssg2004
(igithub.GithubObject
_ValuedAttribute
p2220
(dp2221
g15
I2
sbsg263
g1955
sg2007
(igithub.GithubObject
_ValuedAttribute
p2222
(dp2223
g15
I2
sbsg2010
(igithub.GithubObject
_ValuedAttribute
p2224
(dp2225
g15
g2211
sbsg2013
(igithub.GithubObject
_ValuedAttribute
p2226
(dp2227
g15
g2213
sbsg2016
(igithub.GithubObject
_ValuedAttribute
p2228
(dp2229
g15
V@@ -17,6 +17,8 @@ Canvas {\u000a          Jdenticon.draw(identicon, name)\u000a       else {\u000a          var context = identicon.context\u000a+         if (!context) return\u000a+\u000a          context.reset()\u000a          var draw_circle = function(context, x, y, radius) {\u000a             context.beginPath()
p2230
sbsg2020
(igithub.GithubObject
_ValuedAttribute
p2231
(dp2232
g15
I0
sbsg191
g1895
sbag6
(g1971
g8
Ntp2233
Rp2234
(dp2235
g12
(igithub.GithubObject
_ValuedAttribute
p2236
(dp2237
g15
V2a34f212c3410cb94d6b3f99fb9ba9c031845232
p2238
sbsg1978
(igithub.GithubObject
_ValuedAttribute
p2239
(dp2240
g15
Vprograms/light_client/qml/TransactionConfirmationForm.qml
p2241
sbsg1982
(igithub.GithubObject
_ValuedAttribute
p2242
(dp2243
g15
Vmodified
p2244
sbsg1986
(igithub.GithubObject
_ValuedAttribute
p2245
(dp2246
g15
Vhttps://github.com/cryptonomex/graphene/raw/13d83904c9e063b2a22cbfc717e988bab1215505/programs/light_client/qml/TransactionConfirmationForm.qml
p2247
sbsg20
(dp2248
Vstatus
p2249
g2244
sVdeletions
p2250
I33
sVraw_url
p2251
g2247
sVblob_url
p2252
Vhttps://github.com/cryptonomex/graphene/blob/13d83904c9e063b2a22cbfc717e988bab1215505/programs/light_client/qml/TransactionConfirmationForm.qml
p2253
sVcontents_url
p2254
Vhttps://api.github.com/repos/cryptonomex/graphene/contents/programs/light_client/qml/TransactionConfirmationForm.qml?ref=13d83904c9e063b2a22cbfc717e988bab1215505
p2255
sVfilename
p2256
g2241
sVsha
p2257
g2238
sVadditions
p2258
I59
sVpatch
p2259
V@@ -2,6 +2,7 @@ import QtQuick 2.5\u000a import QtQuick.Controls 1.4\u000a import QtQuick.Dialogs 1.2\u000a import QtQuick.Layouts 1.2\u000a+import QtGraphicalEffects 1.0\u000a \u000a import Graphene.Client 0.1\u000a \u000a@@ -17,63 +18,88 @@ import "."\u000a FormBase {\u000a    id: base\u000a \u000a-   property Transaction trx\u000a+   readonly property alias trx: __trx\u000a \u000a    Component.onCompleted: console.log("Made a transaction confirmation form")\u000a    Component.onDestruction: console.log("Destroyed a transaction confirmation form")\u000a \u000a    onDisplay: {\u000a-      trx = app.createTransaction()\u000a+      trx.clearOperations()\u000a       for (var op in arg)\u000a          trx.appendOperation(arg[op])\u000a    }\u000a \u000a-   Component {\u000a-      id: transactionDelegate\u000a+   Transaction {\u000a+      id: __trx\u000a+   }\u000a \u000a-      Rectangle {\u000a-         width: Scaling.cm(10)\u000a-         height: childrenRect.height + Scaling.cm(1)\u000a-         radius: Scaling.mm(3)\u000a-         color: "#EEEEEE"\u000a-         border.width: Scaling.mm(.25)\u000a-         border.color: "black"\u000a+   Rectangle {\u000a+      id: trxBackground\u000a+      anchors.fill: trxColumn\u000a+      anchors.margins: Scaling.mm(-2)\u000a+      layer.enabled: true\u000a+      layer.effect: DropShadow {\u000a+         radius: 8.0\u000a+         samples: 16\u000a+         horizontalOffset: Scaling.mm(.5)\u000a+         verticalOffset: Scaling.mm(.5)\u000a+         source: trxBackground\u000a+         color: "#80000000"\u000a+         transparentBorder: true\u000a+      }\u000a+   }\u000a+   Column {\u000a+      id: trxColumn\u000a+      Layout.preferredWidth: Scaling.cm(10)\u000a+      spacing: Scaling.mm(2)\u000a \u000a-         Column {\u000a-            y: Scaling.cm(.5)\u000a-            x: y\u000a-            width: parent.width - Scaling.cm(1)\u000a-            Repeater {\u000a-               model: trx.operations\u000a-               Label {\u000a-                  property Asset transferAsset: app.model.getAsset(modelData.amountType)\u000a-                  property Asset feeAsset: app.model.getAsset(modelData.feeType)\u000a-                  text: qsTr("Transfer %1 %2 from %3 to %4\u005cnFee: %5 %6").arg(transferAsset.formatAmount(modelData.amount))\u000a-                  .arg(transferAsset.symbol)\u000a-                  .arg(app.model.getAccount(modelData.sender).name)\u000a-                  .arg(app.model.getAccount(modelData.receiver).name)\u000a-                  .arg(feeAsset.formatAmount(modelData.fee))\u000a-                  .arg(feeAsset.symbol)\u000a-               }\u000a+      Repeater {\u000a+         Layout.alignment: Qt.AlignHCenter | Qt.AlignVCenter\u000a+         model: trx.operations\u000a+         Label {\u000a+            property Asset transferAsset: app.model.getAsset(modelData.amountType)\u000a+            property Asset feeAsset: app.model.getAsset(modelData.feeType)\u000a+            text: {\u000a+               return qsTr("Transfer %1 %2 from %3 to %4\u005cnFee: %5 %6").arg(transferAsset.formatAmount(modelData.amount))\u000a+               .arg(transferAsset.symbol)\u000a+               .arg(app.model.getAccount(modelData.sender).name)\u000a+               .arg(app.model.getAccount(modelData.receiver).name)\u000a+               .arg(feeAsset.formatAmount(modelData.fee))\u000a+               .arg(feeAsset.symbol)\u000a             }\u000a          }\u000a       }\u000a    }\u000a-   Loader {\u000a-      sourceComponent: trx && Array.prototype.slice.call(trx.operations).length > 0? transactionDelegate : undefined\u000a+   RowLayout {\u000a+      Label {\u000a+         text: qsTr("Transaction expires in")\u000a+      }\u000a+      ComboBox {\u000a+         id: expirationSelector\u000a+         model: [qsTr("five seconds"), qsTr("thirty seconds"), qsTr("a minute"), qsTr("an hour"), qsTr("a month"), qsTr("a year")]\u000a+\u000a+         function getExpiration() {\u000a+            switch(expirationSelector.currentIndex) {\u000a+               case 0: return new Date(app.model.chainTime.getTime() + 1000*5)\u000a+               case 1: return new Date(app.model.chainTime.getTime() + 1000*30)\u000a+               case 2: return new Date(app.model.chainTime.getTime() + 1000*60)\u000a+               case 3: return new Date(app.model.chainTime.getTime() + 1000*60*60)\u000a+               case 4: return new Date(app.model.chainTime.getTime() + 1000*60*60*24*30)\u000a+               case 5: return new Date(app.model.chainTime.getTime() + 1000*60*60*24*365)\u000a+            }\u000a+         }\u000a+      }\u000a    }\u000a    UnlockingFinishButtons {\u000a       app: base.app\u000a       Layout.fillWidth: true\u000a       rightButtonText: qsTr("Commit")\u000a-      onLeftButtonClicked: {\u000a-         canceled({})\u000a-         trx = null\u000a-      }\u000a+      onLeftButtonClicked: canceled({})\u000a       onRightButtonClicked: {\u000a          if (app.wallet.isLocked)\u000a             app.wallet.unlock(passwordField.text)\u000a          else {\u000a+            trx.setExpiration(expirationSelector.getExpiration())\u000a             app.signTransaction(trx)\u000a             app.model.broadcast(trx)\u000a             completed(trx)
p2260
sVchanges
p2261
I92
ssg2004
(igithub.GithubObject
_ValuedAttribute
p2262
(dp2263
g15
I92
sbsg263
g1955
sg2007
(igithub.GithubObject
_ValuedAttribute
p2264
(dp2265
g15
I59
sbsg2010
(igithub.GithubObject
_ValuedAttribute
p2266
(dp2267
g15
g2253
sbsg2013
(igithub.GithubObject
_ValuedAttribute
p2268
(dp2269
g15
g2255
sbsg2016
(igithub.GithubObject
_ValuedAttribute
p2270
(dp2271
g15
V@@ -2,6 +2,7 @@ import QtQuick 2.5\u000a import QtQuick.Controls 1.4\u000a import QtQuick.Dialogs 1.2\u000a import QtQuick.Layouts 1.2\u000a+import QtGraphicalEffects 1.0\u000a \u000a import Graphene.Client 0.1\u000a \u000a@@ -17,63 +18,88 @@ import "."\u000a FormBase {\u000a    id: base\u000a \u000a-   property Transaction trx\u000a+   readonly property alias trx: __trx\u000a \u000a    Component.onCompleted: console.log("Made a transaction confirmation form")\u000a    Component.onDestruction: console.log("Destroyed a transaction confirmation form")\u000a \u000a    onDisplay: {\u000a-      trx = app.createTransaction()\u000a+      trx.clearOperations()\u000a       for (var op in arg)\u000a          trx.appendOperation(arg[op])\u000a    }\u000a \u000a-   Component {\u000a-      id: transactionDelegate\u000a+   Transaction {\u000a+      id: __trx\u000a+   }\u000a \u000a-      Rectangle {\u000a-         width: Scaling.cm(10)\u000a-         height: childrenRect.height + Scaling.cm(1)\u000a-         radius: Scaling.mm(3)\u000a-         color: "#EEEEEE"\u000a-         border.width: Scaling.mm(.25)\u000a-         border.color: "black"\u000a+   Rectangle {\u000a+      id: trxBackground\u000a+      anchors.fill: trxColumn\u000a+      anchors.margins: Scaling.mm(-2)\u000a+      layer.enabled: true\u000a+      layer.effect: DropShadow {\u000a+         radius: 8.0\u000a+         samples: 16\u000a+         horizontalOffset: Scaling.mm(.5)\u000a+         verticalOffset: Scaling.mm(.5)\u000a+         source: trxBackground\u000a+         color: "#80000000"\u000a+         transparentBorder: true\u000a+      }\u000a+   }\u000a+   Column {\u000a+      id: trxColumn\u000a+      Layout.preferredWidth: Scaling.cm(10)\u000a+      spacing: Scaling.mm(2)\u000a \u000a-         Column {\u000a-            y: Scaling.cm(.5)\u000a-            x: y\u000a-            width: parent.width - Scaling.cm(1)\u000a-            Repeater {\u000a-               model: trx.operations\u000a-               Label {\u000a-                  property Asset transferAsset: app.model.getAsset(modelData.amountType)\u000a-                  property Asset feeAsset: app.model.getAsset(modelData.feeType)\u000a-                  text: qsTr("Transfer %1 %2 from %3 to %4\u005cnFee: %5 %6").arg(transferAsset.formatAmount(modelData.amount))\u000a-                  .arg(transferAsset.symbol)\u000a-                  .arg(app.model.getAccount(modelData.sender).name)\u000a-                  .arg(app.model.getAccount(modelData.receiver).name)\u000a-                  .arg(feeAsset.formatAmount(modelData.fee))\u000a-                  .arg(feeAsset.symbol)\u000a-               }\u000a+      Repeater {\u000a+         Layout.alignment: Qt.AlignHCenter | Qt.AlignVCenter\u000a+         model: trx.operations\u000a+         Label {\u000a+            property Asset transferAsset: app.model.getAsset(modelData.amountType)\u000a+            property Asset feeAsset: app.model.getAsset(modelData.feeType)\u000a+            text: {\u000a+               return qsTr("Transfer %1 %2 from %3 to %4\u005cnFee: %5 %6").arg(transferAsset.formatAmount(modelData.amount))\u000a+               .arg(transferAsset.symbol)\u000a+               .arg(app.model.getAccount(modelData.sender).name)\u000a+               .arg(app.model.getAccount(modelData.receiver).name)\u000a+               .arg(feeAsset.formatAmount(modelData.fee))\u000a+               .arg(feeAsset.symbol)\u000a             }\u000a          }\u000a       }\u000a    }\u000a-   Loader {\u000a-      sourceComponent: trx && Array.prototype.slice.call(trx.operations).length > 0? transactionDelegate : undefined\u000a+   RowLayout {\u000a+      Label {\u000a+         text: qsTr("Transaction expires in")\u000a+      }\u000a+      ComboBox {\u000a+         id: expirationSelector\u000a+         model: [qsTr("five seconds"), qsTr("thirty seconds"), qsTr("a minute"), qsTr("an hour"), qsTr("a month"), qsTr("a year")]\u000a+\u000a+         function getExpiration() {\u000a+            switch(expirationSelector.currentIndex) {\u000a+               case 0: return new Date(app.model.chainTime.getTime() + 1000*5)\u000a+               case 1: return new Date(app.model.chainTime.getTime() + 1000*30)\u000a+               case 2: return new Date(app.model.chainTime.getTime() + 1000*60)\u000a+               case 3: return new Date(app.model.chainTime.getTime() + 1000*60*60)\u000a+               case 4: return new Date(app.model.chainTime.getTime() + 1000*60*60*24*30)\u000a+               case 5: return new Date(app.model.chainTime.getTime() + 1000*60*60*24*365)\u000a+            }\u000a+         }\u000a+      }\u000a    }\u000a    UnlockingFinishButtons {\u000a       app: base.app\u000a       Layout.fillWidth: true\u000a       rightButtonText: qsTr("Commit")\u000a-      onLeftButtonClicked: {\u000a-         canceled({})\u000a-         trx = null\u000a-      }\u000a+      onLeftButtonClicked: canceled({})\u000a       onRightButtonClicked: {\u000a          if (app.wallet.isLocked)\u000a             app.wallet.unlock(passwordField.text)\u000a          else {\u000a+            trx.setExpiration(expirationSelector.getExpiration())\u000a             app.signTransaction(trx)\u000a             app.model.broadcast(trx)\u000a             completed(trx)
p2272
sbsg2020
(igithub.GithubObject
_ValuedAttribute
p2273
(dp2274
g15
I33
sbsg191
g1895
sbasbsg164
(igithub.GithubObject
_ValuedAttribute
p2275
(dp2276
g15
g1819
sbsg263
g1955
sg253
(igithub.GithubObject
_ValuedAttribute
p2277
(dp2278
g15
g1816
sbsg301
(igithub.GithubObject
_ValuedAttribute
p2279
(dp2280
g15
g6
(g136
g8
Ntp2281
Rp2282
(dp2283
g140
g1871
sg143
g1871
sg185
(igithub.GithubObject
_ValuedAttribute
p2284
(dp2285
g15
g1759
sbsg145
(igithub.GithubObject
_ValuedAttribute
p2286
(dp2287
g15
g1776
sbsg175
g1871
sg149
(igithub.GithubObject
_ValuedAttribute
p2288
(dp2289
g15
g1771
sbsg152
I00
sg153
g1871
sg154
(igithub.GithubObject
_ValuedAttribute
p2290
(dp2291
g15
g1747
sbsg157
g1871
sg158
g1871
sg159
g1871
sg178
(igithub.GithubObject
_ValuedAttribute
p2292
(dp2293
g15
g1761
sbsg160
(igithub.GithubObject
_ValuedAttribute
p2294
(dp2295
g15
g1751
sbsg163
g1871
sg164
(igithub.GithubObject
_ValuedAttribute
p2296
(dp2297
g15
g1757
sbsg167
(igithub.GithubObject
_ValuedAttribute
p2298
(dp2299
g15
g1755
sbsg170
g1871
sg171
g1871
sg172
(igithub.GithubObject
_ValuedAttribute
p2300
(dp2301
g15
g1773
sbsg148
g1871
sg176
g1871
sg144
g1871
sg177
g1871
sg188
(igithub.GithubObject
_ValuedAttribute
p2302
(dp2303
g15
g1749
sbsg181
g1871
sg182
(igithub.GithubObject
_ValuedAttribute
p2304
(dp2305
g15
g1763
sbsg191
g1895
sg243
(igithub.GithubObject
_ValuedAttribute
p2306
(dp2307
g15
g45
sbsg246
(igithub.GithubObject
_ValuedAttribute
p2308
(dp2309
g15
g1768
sbsg249
g1871
sg20
g1745
sg250
g1871
sg251
g1871
sg252
g1871
sg253
(igithub.GithubObject
_ValuedAttribute
p2310
(dp2311
g15
g1753
sbsg256
g1871
sg257
(igithub.GithubObject
_ValuedAttribute
p2312
(dp2313
g15
I347290
sbsg260
(igithub.GithubObject
_ValuedAttribute
p2314
(dp2315
g15
g1765
sbsg263
g1955
sbsbsg152
I01
sg339
(igithub.GithubObject
_ValuedAttribute
p2316
(dp2317
g15
g6
(cgithub.CommitStats
CommitStats
p2318
g8
Ntp2319
Rp2320
(dp2321
S'_total'
p2322
(igithub.GithubObject
_ValuedAttribute
p2323
(dp2324
g15
I136
sbsg191
g1895
sg20
g1778
sg263
g1955
sg2007
(igithub.GithubObject
_ValuedAttribute
p2325
(dp2326
g15
I100
sbsg2020
(igithub.GithubObject
_ValuedAttribute
p2327
(dp2328
g15
I36
sbsbsbsg340
(igithub.GithubObject
_ValuedAttribute
p2329
(dp2330
g15
g6
(g343
g8
Ntp2331
Rp2332
(dp2333
g12
g1871
sg20
g1838
sg347
(igithub.GithubObject
_ValuedAttribute
p2334
(dp2335
g15
g1865
sbsg133
(igithub.GithubObject
_ValuedAttribute
p2336
(dp2337
g15
g6
(g353
g8
Ntp2338
Rp2339
(dp2340
g191
g1895
sg20
g1848
sg250
(igithub.GithubObject
_ValuedAttribute
p2341
(dp2342
g15
g1852
sbsg148
(igithub.GithubObject
_ValuedAttribute
p2343
(dp2344
g15
g1854
sbsg263
g1955
sg361
(igithub.GithubObject
_ValuedAttribute
p2345
(dp2346
g15
g364
(S'\x07\xdf\x08\x03\x14\x16\x17\x00\x00\x00'
p2347
tp2348
Rp2349
sbsbsbsg164
g1871
sg263
g1955
sg253
(igithub.GithubObject
_ValuedAttribute
p2350
(dp2351
g15
g1856
sbsg301
(igithub.GithubObject
_ValuedAttribute
p2352
(dp2353
g15
g6
(g353
g8
Ntp2354
Rp2355
(dp2356
g191
g1895
sg20
g1840
sg250
(igithub.GithubObject
_ValuedAttribute
p2357
(dp2358
g15
g1844
sbsg148
(igithub.GithubObject
_ValuedAttribute
p2359
(dp2360
g15
g1846
sbsg263
g1955
sg361
(igithub.GithubObject
_ValuedAttribute
p2361
(dp2362
g15
g364
(S'\x07\xdf\x08\x03\x14\x16\x17\x00\x00\x00'
p2363
tp2364
Rp2365
sbsbsbsg152
I00
sg384
(igithub.GithubObject
_ValuedAttribute
p2366
(dp2367
g15
g6
(g387
g8
Ntp2368
Rp2369
(dp2370
g12
(igithub.GithubObject
_ValuedAttribute
p2371
(dp2372
g15
g1862
sbsg20
g1858
sg191
g1895
sg263
g1955
sg253
(igithub.GithubObject
_ValuedAttribute
p2373
(dp2374
g15
g1860
sbsg152
I00
sg384
g1871
sbsbsg395
g1871
sg191
g1895
sbsbsg395
(igithub.GithubObject
_ValuedAttribute
p2375
(dp2376
g15
(lp2377
g6
(g7
g8
Ntp2378
Rp2379
(dp2380
g12
(igithub.GithubObject
_ValuedAttribute
p2381
(dp2382
g15
g1827
sbsg16
g1871
sg20
g1823
sg133
g1871
sg296
g1871
sg164
(igithub.GithubObject
_ValuedAttribute
p2383
(dp2384
g15
g1829
sbsg263
g1955
sg253
(igithub.GithubObject
_ValuedAttribute
p2385
(dp2386
g15
g1825
sbsg301
g1871
sg152
I00
sg339
g1871
sg340
g1871
sg395
g1871
sg191
g1895
sbag6
(g7
g8
Ntp2387
Rp2388
(dp2389
g12
(igithub.GithubObject
_ValuedAttribute
p2390
(dp2391
g15
g1834
sbsg16
g1871
sg20
g1830
sg133
g1871
sg296
g1871
sg164
(igithub.GithubObject
_ValuedAttribute
p2392
(dp2393
g15
g1836
sbsg263
g1955
sg253
(igithub.GithubObject
_ValuedAttribute
p2394
(dp2395
g15
g1832
sbsg301
g1871
sg152
I00
sg339
g1871
sg340
g1871
sg395
g1871
sg191
g1895
sbasbsg191
g1895
sbsS'rc'
p2396
I1
sssS'tags'
p2397
(dp2398
sS'last_commit_date'
p2399
g2349
s.